   1              	 .syntax unified
   2              	 .cpu cortex-m4
   3              	 .eabi_attribute 27,3
   4              	 .fpu fpv4-sp-d16
   5              	 .eabi_attribute 20,1
   6              	 .eabi_attribute 21,1
   7              	 .eabi_attribute 23,3
   8              	 .eabi_attribute 24,1
   9              	 .eabi_attribute 25,1
  10              	 .eabi_attribute 26,1
  11              	 .eabi_attribute 30,6
  12              	 .eabi_attribute 34,1
  13              	 .eabi_attribute 18,4
  14              	 .thumb
  15              	 .file "main.c"
  16              	 .text
  17              	.Ltext0:
  18              	 .cfi_sections .debug_frame
  19              	 .section .text.XMC_GPIO_GetInput,"ax",%progbits
  20              	 .align 2
  21              	 .thumb
  22              	 .thumb_func
  24              	XMC_GPIO_GetInput:
  25              	.LFB176:
  26              	 .file 1 "C:/Infineon/Tools/DAVE IDE/4.5.0.202105191637/eclipse/workspace/LED/Libraries/XMCLib/inc/xmc_gpio.h"
   1:C:/Infineon/Tools/DAVE IDE/4.5.0.202105191637/eclipse/workspace/LED/Libraries/XMCLib/inc\xmc_gpio.h **** /**
   2:C:/Infineon/Tools/DAVE IDE/4.5.0.202105191637/eclipse/workspace/LED/Libraries/XMCLib/inc\xmc_gpio.h ****  * @file xmc_gpio.h
   3:C:/Infineon/Tools/DAVE IDE/4.5.0.202105191637/eclipse/workspace/LED/Libraries/XMCLib/inc\xmc_gpio.h ****  * @date 2015-06-20
   4:C:/Infineon/Tools/DAVE IDE/4.5.0.202105191637/eclipse/workspace/LED/Libraries/XMCLib/inc\xmc_gpio.h ****  *
   5:C:/Infineon/Tools/DAVE IDE/4.5.0.202105191637/eclipse/workspace/LED/Libraries/XMCLib/inc\xmc_gpio.h ****  * @cond
   6:C:/Infineon/Tools/DAVE IDE/4.5.0.202105191637/eclipse/workspace/LED/Libraries/XMCLib/inc\xmc_gpio.h ****  *****************************************************************************
   7:C:/Infineon/Tools/DAVE IDE/4.5.0.202105191637/eclipse/workspace/LED/Libraries/XMCLib/inc\xmc_gpio.h ****  * XMClib v2.2.0 - XMC Peripheral Driver Library
   8:C:/Infineon/Tools/DAVE IDE/4.5.0.202105191637/eclipse/workspace/LED/Libraries/XMCLib/inc\xmc_gpio.h ****  *
   9:C:/Infineon/Tools/DAVE IDE/4.5.0.202105191637/eclipse/workspace/LED/Libraries/XMCLib/inc\xmc_gpio.h ****  * Copyright (c) 2015-2020, Infineon Technologies AG
  10:C:/Infineon/Tools/DAVE IDE/4.5.0.202105191637/eclipse/workspace/LED/Libraries/XMCLib/inc\xmc_gpio.h ****  * All rights reserved.
  11:C:/Infineon/Tools/DAVE IDE/4.5.0.202105191637/eclipse/workspace/LED/Libraries/XMCLib/inc\xmc_gpio.h ****  *
  12:C:/Infineon/Tools/DAVE IDE/4.5.0.202105191637/eclipse/workspace/LED/Libraries/XMCLib/inc\xmc_gpio.h ****  * Boost Software License - Version 1.0 - August 17th, 2003
  13:C:/Infineon/Tools/DAVE IDE/4.5.0.202105191637/eclipse/workspace/LED/Libraries/XMCLib/inc\xmc_gpio.h ****  *
  14:C:/Infineon/Tools/DAVE IDE/4.5.0.202105191637/eclipse/workspace/LED/Libraries/XMCLib/inc\xmc_gpio.h ****  * Permission is hereby granted, free of charge, to any person or organization
  15:C:/Infineon/Tools/DAVE IDE/4.5.0.202105191637/eclipse/workspace/LED/Libraries/XMCLib/inc\xmc_gpio.h ****  * obtaining a copy of the software and accompanying documentation covered by
  16:C:/Infineon/Tools/DAVE IDE/4.5.0.202105191637/eclipse/workspace/LED/Libraries/XMCLib/inc\xmc_gpio.h ****  * this license (the "Software") to use, reproduce, display, distribute,
  17:C:/Infineon/Tools/DAVE IDE/4.5.0.202105191637/eclipse/workspace/LED/Libraries/XMCLib/inc\xmc_gpio.h ****  * execute, and transmit the Software, and to prepare derivative works of the
  18:C:/Infineon/Tools/DAVE IDE/4.5.0.202105191637/eclipse/workspace/LED/Libraries/XMCLib/inc\xmc_gpio.h ****  * Software, and to permit third-parties to whom the Software is furnished to
  19:C:/Infineon/Tools/DAVE IDE/4.5.0.202105191637/eclipse/workspace/LED/Libraries/XMCLib/inc\xmc_gpio.h ****  * do so, all subject to the following:
  20:C:/Infineon/Tools/DAVE IDE/4.5.0.202105191637/eclipse/workspace/LED/Libraries/XMCLib/inc\xmc_gpio.h ****  *
  21:C:/Infineon/Tools/DAVE IDE/4.5.0.202105191637/eclipse/workspace/LED/Libraries/XMCLib/inc\xmc_gpio.h ****  * The copyright notices in the Software and this entire statement, including
  22:C:/Infineon/Tools/DAVE IDE/4.5.0.202105191637/eclipse/workspace/LED/Libraries/XMCLib/inc\xmc_gpio.h ****  * the above license grant, this restriction and the following disclaimer,
  23:C:/Infineon/Tools/DAVE IDE/4.5.0.202105191637/eclipse/workspace/LED/Libraries/XMCLib/inc\xmc_gpio.h ****  * must be included in all copies of the Software, in whole or in part, and
  24:C:/Infineon/Tools/DAVE IDE/4.5.0.202105191637/eclipse/workspace/LED/Libraries/XMCLib/inc\xmc_gpio.h ****  * all derivative works of the Software, unless such copies or derivative
  25:C:/Infineon/Tools/DAVE IDE/4.5.0.202105191637/eclipse/workspace/LED/Libraries/XMCLib/inc\xmc_gpio.h ****  * works are solely in the form of machine-executable object code generated by
  26:C:/Infineon/Tools/DAVE IDE/4.5.0.202105191637/eclipse/workspace/LED/Libraries/XMCLib/inc\xmc_gpio.h ****  * a source language processor.
  27:C:/Infineon/Tools/DAVE IDE/4.5.0.202105191637/eclipse/workspace/LED/Libraries/XMCLib/inc\xmc_gpio.h ****  *
  28:C:/Infineon/Tools/DAVE IDE/4.5.0.202105191637/eclipse/workspace/LED/Libraries/XMCLib/inc\xmc_gpio.h ****  * THE SOFTWARE IS PROVIDED "AS IS", WITHOUT WARRANTY OF ANY KIND, EXPRESS OR
  29:C:/Infineon/Tools/DAVE IDE/4.5.0.202105191637/eclipse/workspace/LED/Libraries/XMCLib/inc\xmc_gpio.h ****  * IMPLIED, INCLUDING BUT NOT LIMITED TO THE WARRANTIES OF MERCHANTABILITY,
  30:C:/Infineon/Tools/DAVE IDE/4.5.0.202105191637/eclipse/workspace/LED/Libraries/XMCLib/inc\xmc_gpio.h ****  * FITNESS FOR A PARTICULAR PURPOSE, TITLE AND NON-INFRINGEMENT. IN NO EVENT
  31:C:/Infineon/Tools/DAVE IDE/4.5.0.202105191637/eclipse/workspace/LED/Libraries/XMCLib/inc\xmc_gpio.h ****  * SHALL THE COPYRIGHT HOLDERS OR ANYONE DISTRIBUTING THE SOFTWARE BE LIABLE
  32:C:/Infineon/Tools/DAVE IDE/4.5.0.202105191637/eclipse/workspace/LED/Libraries/XMCLib/inc\xmc_gpio.h ****  * FOR ANY DAMAGES OR OTHER LIABILITY, WHETHER IN CONTRACT, TORT OR OTHERWISE,
  33:C:/Infineon/Tools/DAVE IDE/4.5.0.202105191637/eclipse/workspace/LED/Libraries/XMCLib/inc\xmc_gpio.h ****  * ARISING FROM, OUT OF OR IN CONNECTION WITH THE SOFTWARE OR THE USE OR OTHER
  34:C:/Infineon/Tools/DAVE IDE/4.5.0.202105191637/eclipse/workspace/LED/Libraries/XMCLib/inc\xmc_gpio.h ****  * DEALINGS IN THE SOFTWARE.
  35:C:/Infineon/Tools/DAVE IDE/4.5.0.202105191637/eclipse/workspace/LED/Libraries/XMCLib/inc\xmc_gpio.h ****  *
  36:C:/Infineon/Tools/DAVE IDE/4.5.0.202105191637/eclipse/workspace/LED/Libraries/XMCLib/inc\xmc_gpio.h ****  * To improve the quality of the software, users are encouraged to share
  37:C:/Infineon/Tools/DAVE IDE/4.5.0.202105191637/eclipse/workspace/LED/Libraries/XMCLib/inc\xmc_gpio.h ****  * modifications, enhancements or bug fixes with Infineon Technologies AG
  38:C:/Infineon/Tools/DAVE IDE/4.5.0.202105191637/eclipse/workspace/LED/Libraries/XMCLib/inc\xmc_gpio.h ****  * at XMCSupport@infineon.com.
  39:C:/Infineon/Tools/DAVE IDE/4.5.0.202105191637/eclipse/workspace/LED/Libraries/XMCLib/inc\xmc_gpio.h ****  *****************************************************************************
  40:C:/Infineon/Tools/DAVE IDE/4.5.0.202105191637/eclipse/workspace/LED/Libraries/XMCLib/inc\xmc_gpio.h ****  *
  41:C:/Infineon/Tools/DAVE IDE/4.5.0.202105191637/eclipse/workspace/LED/Libraries/XMCLib/inc\xmc_gpio.h ****  * Change History
  42:C:/Infineon/Tools/DAVE IDE/4.5.0.202105191637/eclipse/workspace/LED/Libraries/XMCLib/inc\xmc_gpio.h ****  * --------------
  43:C:/Infineon/Tools/DAVE IDE/4.5.0.202105191637/eclipse/workspace/LED/Libraries/XMCLib/inc\xmc_gpio.h ****  *
  44:C:/Infineon/Tools/DAVE IDE/4.5.0.202105191637/eclipse/workspace/LED/Libraries/XMCLib/inc\xmc_gpio.h ****  * 2015-02-20:
  45:C:/Infineon/Tools/DAVE IDE/4.5.0.202105191637/eclipse/workspace/LED/Libraries/XMCLib/inc\xmc_gpio.h ****  *     - Initial draft<br>
  46:C:/Infineon/Tools/DAVE IDE/4.5.0.202105191637/eclipse/workspace/LED/Libraries/XMCLib/inc\xmc_gpio.h ****  *     - Documentation improved <br>
  47:C:/Infineon/Tools/DAVE IDE/4.5.0.202105191637/eclipse/workspace/LED/Libraries/XMCLib/inc\xmc_gpio.h ****  *
  48:C:/Infineon/Tools/DAVE IDE/4.5.0.202105191637/eclipse/workspace/LED/Libraries/XMCLib/inc\xmc_gpio.h ****  * 2015-06-20:
  49:C:/Infineon/Tools/DAVE IDE/4.5.0.202105191637/eclipse/workspace/LED/Libraries/XMCLib/inc\xmc_gpio.h ****  *     - Removed version macros and declaration of GetDriverVersion API
  50:C:/Infineon/Tools/DAVE IDE/4.5.0.202105191637/eclipse/workspace/LED/Libraries/XMCLib/inc\xmc_gpio.h ****  *
  51:C:/Infineon/Tools/DAVE IDE/4.5.0.202105191637/eclipse/workspace/LED/Libraries/XMCLib/inc\xmc_gpio.h ****  * @endcond
  52:C:/Infineon/Tools/DAVE IDE/4.5.0.202105191637/eclipse/workspace/LED/Libraries/XMCLib/inc\xmc_gpio.h ****  *
  53:C:/Infineon/Tools/DAVE IDE/4.5.0.202105191637/eclipse/workspace/LED/Libraries/XMCLib/inc\xmc_gpio.h ****  */
  54:C:/Infineon/Tools/DAVE IDE/4.5.0.202105191637/eclipse/workspace/LED/Libraries/XMCLib/inc\xmc_gpio.h **** 
  55:C:/Infineon/Tools/DAVE IDE/4.5.0.202105191637/eclipse/workspace/LED/Libraries/XMCLib/inc\xmc_gpio.h **** #ifndef XMC_GPIO_H
  56:C:/Infineon/Tools/DAVE IDE/4.5.0.202105191637/eclipse/workspace/LED/Libraries/XMCLib/inc\xmc_gpio.h **** #define XMC_GPIO_H
  57:C:/Infineon/Tools/DAVE IDE/4.5.0.202105191637/eclipse/workspace/LED/Libraries/XMCLib/inc\xmc_gpio.h **** 
  58:C:/Infineon/Tools/DAVE IDE/4.5.0.202105191637/eclipse/workspace/LED/Libraries/XMCLib/inc\xmc_gpio.h **** /**************************************************************************************************
  59:C:/Infineon/Tools/DAVE IDE/4.5.0.202105191637/eclipse/workspace/LED/Libraries/XMCLib/inc\xmc_gpio.h ****  * HEADER FILES
  60:C:/Infineon/Tools/DAVE IDE/4.5.0.202105191637/eclipse/workspace/LED/Libraries/XMCLib/inc\xmc_gpio.h ****  **************************************************************************************************
  61:C:/Infineon/Tools/DAVE IDE/4.5.0.202105191637/eclipse/workspace/LED/Libraries/XMCLib/inc\xmc_gpio.h **** 
  62:C:/Infineon/Tools/DAVE IDE/4.5.0.202105191637/eclipse/workspace/LED/Libraries/XMCLib/inc\xmc_gpio.h **** #include "xmc_common.h"
  63:C:/Infineon/Tools/DAVE IDE/4.5.0.202105191637/eclipse/workspace/LED/Libraries/XMCLib/inc\xmc_gpio.h **** 
  64:C:/Infineon/Tools/DAVE IDE/4.5.0.202105191637/eclipse/workspace/LED/Libraries/XMCLib/inc\xmc_gpio.h **** /**
  65:C:/Infineon/Tools/DAVE IDE/4.5.0.202105191637/eclipse/workspace/LED/Libraries/XMCLib/inc\xmc_gpio.h ****  * @addtogroup XMClib XMC Peripheral Library
  66:C:/Infineon/Tools/DAVE IDE/4.5.0.202105191637/eclipse/workspace/LED/Libraries/XMCLib/inc\xmc_gpio.h ****  * @{
  67:C:/Infineon/Tools/DAVE IDE/4.5.0.202105191637/eclipse/workspace/LED/Libraries/XMCLib/inc\xmc_gpio.h ****  */
  68:C:/Infineon/Tools/DAVE IDE/4.5.0.202105191637/eclipse/workspace/LED/Libraries/XMCLib/inc\xmc_gpio.h **** 
  69:C:/Infineon/Tools/DAVE IDE/4.5.0.202105191637/eclipse/workspace/LED/Libraries/XMCLib/inc\xmc_gpio.h **** /**
  70:C:/Infineon/Tools/DAVE IDE/4.5.0.202105191637/eclipse/workspace/LED/Libraries/XMCLib/inc\xmc_gpio.h ****  * @addtogroup GPIO
  71:C:/Infineon/Tools/DAVE IDE/4.5.0.202105191637/eclipse/workspace/LED/Libraries/XMCLib/inc\xmc_gpio.h ****  * @brief General Purpose Input Output (GPIO) driver for the XMC microcontroller family.
  72:C:/Infineon/Tools/DAVE IDE/4.5.0.202105191637/eclipse/workspace/LED/Libraries/XMCLib/inc\xmc_gpio.h ****  *
  73:C:/Infineon/Tools/DAVE IDE/4.5.0.202105191637/eclipse/workspace/LED/Libraries/XMCLib/inc\xmc_gpio.h ****  * GPIO driver provide a generic and very flexible software interface for all standard digital I/O 
  74:C:/Infineon/Tools/DAVE IDE/4.5.0.202105191637/eclipse/workspace/LED/Libraries/XMCLib/inc\xmc_gpio.h ****  * Each port slice has individual interfaces for the operation as General Purpose I/O and it furthe
  75:C:/Infineon/Tools/DAVE IDE/4.5.0.202105191637/eclipse/workspace/LED/Libraries/XMCLib/inc\xmc_gpio.h ****  * connectivity to the on-chip periphery and the control for the pad characteristics.
  76:C:/Infineon/Tools/DAVE IDE/4.5.0.202105191637/eclipse/workspace/LED/Libraries/XMCLib/inc\xmc_gpio.h ****  *
  77:C:/Infineon/Tools/DAVE IDE/4.5.0.202105191637/eclipse/workspace/LED/Libraries/XMCLib/inc\xmc_gpio.h ****  * The driver is divided into Input and Output mode.
  78:C:/Infineon/Tools/DAVE IDE/4.5.0.202105191637/eclipse/workspace/LED/Libraries/XMCLib/inc\xmc_gpio.h ****  *
  79:C:/Infineon/Tools/DAVE IDE/4.5.0.202105191637/eclipse/workspace/LED/Libraries/XMCLib/inc\xmc_gpio.h ****  * Input mode features:
  80:C:/Infineon/Tools/DAVE IDE/4.5.0.202105191637/eclipse/workspace/LED/Libraries/XMCLib/inc\xmc_gpio.h ****  * -# Configuration structure XMC_GPIO_CONFIG_t and initialization function XMC_GPIO_Init()
  81:C:/Infineon/Tools/DAVE IDE/4.5.0.202105191637/eclipse/workspace/LED/Libraries/XMCLib/inc\xmc_gpio.h ****  * -# Allows the selection of weak pull-up or pull-down device. Configuration structure XMC_GPIO_MO
  82:C:/Infineon/Tools/DAVE IDE/4.5.0.202105191637/eclipse/workspace/LED/Libraries/XMCLib/inc\xmc_gpio.h ****  * \if XMC1
  83:C:/Infineon/Tools/DAVE IDE/4.5.0.202105191637/eclipse/workspace/LED/Libraries/XMCLib/inc\xmc_gpio.h ****  * -# Allows the selection of input hysteresis. XMC_GPIO_SetInputHysteresis()
  84:C:/Infineon/Tools/DAVE IDE/4.5.0.202105191637/eclipse/workspace/LED/Libraries/XMCLib/inc\xmc_gpio.h ****  * \endif
  85:C:/Infineon/Tools/DAVE IDE/4.5.0.202105191637/eclipse/workspace/LED/Libraries/XMCLib/inc\xmc_gpio.h ****  *
  86:C:/Infineon/Tools/DAVE IDE/4.5.0.202105191637/eclipse/workspace/LED/Libraries/XMCLib/inc\xmc_gpio.h ****  *
  87:C:/Infineon/Tools/DAVE IDE/4.5.0.202105191637/eclipse/workspace/LED/Libraries/XMCLib/inc\xmc_gpio.h ****  * Output mode features:
  88:C:/Infineon/Tools/DAVE IDE/4.5.0.202105191637/eclipse/workspace/LED/Libraries/XMCLib/inc\xmc_gpio.h ****  * -# Allows the selection of push pull/open drain and Alternate output. Configuration structure XM
  89:C:/Infineon/Tools/DAVE IDE/4.5.0.202105191637/eclipse/workspace/LED/Libraries/XMCLib/inc\xmc_gpio.h ****  * \if XMC4
  90:C:/Infineon/Tools/DAVE IDE/4.5.0.202105191637/eclipse/workspace/LED/Libraries/XMCLib/inc\xmc_gpio.h ****  * -# Allows the selection of pad driver strength. Configuration structure XMC_GPIO_OUTPUT_STRENGTH
  91:C:/Infineon/Tools/DAVE IDE/4.5.0.202105191637/eclipse/workspace/LED/Libraries/XMCLib/inc\xmc_gpio.h ****  * \endif
  92:C:/Infineon/Tools/DAVE IDE/4.5.0.202105191637/eclipse/workspace/LED/Libraries/XMCLib/inc\xmc_gpio.h ****  *
  93:C:/Infineon/Tools/DAVE IDE/4.5.0.202105191637/eclipse/workspace/LED/Libraries/XMCLib/inc\xmc_gpio.h ****  * -# Allows the selection of initial output level. Configuration structure XMC_GPIO_OUTPUT_LEVEL_t
  94:C:/Infineon/Tools/DAVE IDE/4.5.0.202105191637/eclipse/workspace/LED/Libraries/XMCLib/inc\xmc_gpio.h ****  *
  95:C:/Infineon/Tools/DAVE IDE/4.5.0.202105191637/eclipse/workspace/LED/Libraries/XMCLib/inc\xmc_gpio.h ****  *@{
  96:C:/Infineon/Tools/DAVE IDE/4.5.0.202105191637/eclipse/workspace/LED/Libraries/XMCLib/inc\xmc_gpio.h ****  */
  97:C:/Infineon/Tools/DAVE IDE/4.5.0.202105191637/eclipse/workspace/LED/Libraries/XMCLib/inc\xmc_gpio.h **** 
  98:C:/Infineon/Tools/DAVE IDE/4.5.0.202105191637/eclipse/workspace/LED/Libraries/XMCLib/inc\xmc_gpio.h **** /**************************************************************************************************
  99:C:/Infineon/Tools/DAVE IDE/4.5.0.202105191637/eclipse/workspace/LED/Libraries/XMCLib/inc\xmc_gpio.h ****  * MACROS
 100:C:/Infineon/Tools/DAVE IDE/4.5.0.202105191637/eclipse/workspace/LED/Libraries/XMCLib/inc\xmc_gpio.h ****  **************************************************************************************************
 101:C:/Infineon/Tools/DAVE IDE/4.5.0.202105191637/eclipse/workspace/LED/Libraries/XMCLib/inc\xmc_gpio.h **** 
 102:C:/Infineon/Tools/DAVE IDE/4.5.0.202105191637/eclipse/workspace/LED/Libraries/XMCLib/inc\xmc_gpio.h **** #define PORT_IOCR_PC_Pos PORT0_IOCR0_PC0_Pos
 103:C:/Infineon/Tools/DAVE IDE/4.5.0.202105191637/eclipse/workspace/LED/Libraries/XMCLib/inc\xmc_gpio.h **** #define PORT_IOCR_PC_Msk PORT0_IOCR0_PC0_Msk
 104:C:/Infineon/Tools/DAVE IDE/4.5.0.202105191637/eclipse/workspace/LED/Libraries/XMCLib/inc\xmc_gpio.h **** 
 105:C:/Infineon/Tools/DAVE IDE/4.5.0.202105191637/eclipse/workspace/LED/Libraries/XMCLib/inc\xmc_gpio.h **** #define PORT_IOCR_PC_Size 				(8U)
 106:C:/Infineon/Tools/DAVE IDE/4.5.0.202105191637/eclipse/workspace/LED/Libraries/XMCLib/inc\xmc_gpio.h **** 
 107:C:/Infineon/Tools/DAVE IDE/4.5.0.202105191637/eclipse/workspace/LED/Libraries/XMCLib/inc\xmc_gpio.h **** 
 108:C:/Infineon/Tools/DAVE IDE/4.5.0.202105191637/eclipse/workspace/LED/Libraries/XMCLib/inc\xmc_gpio.h **** #define XMC_GPIO_CHECK_OUTPUT_LEVEL(level) ((level == XMC_GPIO_OUTPUT_LEVEL_LOW) || \
 109:C:/Infineon/Tools/DAVE IDE/4.5.0.202105191637/eclipse/workspace/LED/Libraries/XMCLib/inc\xmc_gpio.h ****                                             (level == XMC_GPIO_OUTPUT_LEVEL_HIGH))
 110:C:/Infineon/Tools/DAVE IDE/4.5.0.202105191637/eclipse/workspace/LED/Libraries/XMCLib/inc\xmc_gpio.h **** 
 111:C:/Infineon/Tools/DAVE IDE/4.5.0.202105191637/eclipse/workspace/LED/Libraries/XMCLib/inc\xmc_gpio.h **** #define XMC_GPIO_CHECK_HWCTRL(hwctrl) ((hwctrl == XMC_GPIO_HWCTRL_DISABLED) || \
 112:C:/Infineon/Tools/DAVE IDE/4.5.0.202105191637/eclipse/workspace/LED/Libraries/XMCLib/inc\xmc_gpio.h ****                                        (hwctrl == XMC_GPIO_HWCTRL_PERIPHERAL1) || \
 113:C:/Infineon/Tools/DAVE IDE/4.5.0.202105191637/eclipse/workspace/LED/Libraries/XMCLib/inc\xmc_gpio.h ****                                        (hwctrl == XMC_GPIO_HWCTRL_PERIPHERAL2))
 114:C:/Infineon/Tools/DAVE IDE/4.5.0.202105191637/eclipse/workspace/LED/Libraries/XMCLib/inc\xmc_gpio.h **** 
 115:C:/Infineon/Tools/DAVE IDE/4.5.0.202105191637/eclipse/workspace/LED/Libraries/XMCLib/inc\xmc_gpio.h **** /**************************************************************************************************
 116:C:/Infineon/Tools/DAVE IDE/4.5.0.202105191637/eclipse/workspace/LED/Libraries/XMCLib/inc\xmc_gpio.h ****  * ENUMS
 117:C:/Infineon/Tools/DAVE IDE/4.5.0.202105191637/eclipse/workspace/LED/Libraries/XMCLib/inc\xmc_gpio.h ****  **************************************************************************************************
 118:C:/Infineon/Tools/DAVE IDE/4.5.0.202105191637/eclipse/workspace/LED/Libraries/XMCLib/inc\xmc_gpio.h **** 
 119:C:/Infineon/Tools/DAVE IDE/4.5.0.202105191637/eclipse/workspace/LED/Libraries/XMCLib/inc\xmc_gpio.h **** 
 120:C:/Infineon/Tools/DAVE IDE/4.5.0.202105191637/eclipse/workspace/LED/Libraries/XMCLib/inc\xmc_gpio.h **** /**
 121:C:/Infineon/Tools/DAVE IDE/4.5.0.202105191637/eclipse/workspace/LED/Libraries/XMCLib/inc\xmc_gpio.h ****  * Defines output level of a pin. Use type \a XMC_GPIO_OUTPUT_LEVEL_t for this enum.
 122:C:/Infineon/Tools/DAVE IDE/4.5.0.202105191637/eclipse/workspace/LED/Libraries/XMCLib/inc\xmc_gpio.h ****  */
 123:C:/Infineon/Tools/DAVE IDE/4.5.0.202105191637/eclipse/workspace/LED/Libraries/XMCLib/inc\xmc_gpio.h **** typedef enum XMC_GPIO_OUTPUT_LEVEL
 124:C:/Infineon/Tools/DAVE IDE/4.5.0.202105191637/eclipse/workspace/LED/Libraries/XMCLib/inc\xmc_gpio.h **** {
 125:C:/Infineon/Tools/DAVE IDE/4.5.0.202105191637/eclipse/workspace/LED/Libraries/XMCLib/inc\xmc_gpio.h ****   XMC_GPIO_OUTPUT_LEVEL_LOW  = 0x10000U, /**<  Reset bit */
 126:C:/Infineon/Tools/DAVE IDE/4.5.0.202105191637/eclipse/workspace/LED/Libraries/XMCLib/inc\xmc_gpio.h ****   XMC_GPIO_OUTPUT_LEVEL_HIGH = 0x1U, 	/**< Set bit  */
 127:C:/Infineon/Tools/DAVE IDE/4.5.0.202105191637/eclipse/workspace/LED/Libraries/XMCLib/inc\xmc_gpio.h **** } XMC_GPIO_OUTPUT_LEVEL_t;
 128:C:/Infineon/Tools/DAVE IDE/4.5.0.202105191637/eclipse/workspace/LED/Libraries/XMCLib/inc\xmc_gpio.h **** 
 129:C:/Infineon/Tools/DAVE IDE/4.5.0.202105191637/eclipse/workspace/LED/Libraries/XMCLib/inc\xmc_gpio.h **** /**
 130:C:/Infineon/Tools/DAVE IDE/4.5.0.202105191637/eclipse/workspace/LED/Libraries/XMCLib/inc\xmc_gpio.h ****  * Defines direct hardware control characteristics of the pin . Use type \a XMC_GPIO_HWCTRL_t for t
 131:C:/Infineon/Tools/DAVE IDE/4.5.0.202105191637/eclipse/workspace/LED/Libraries/XMCLib/inc\xmc_gpio.h ****  */
 132:C:/Infineon/Tools/DAVE IDE/4.5.0.202105191637/eclipse/workspace/LED/Libraries/XMCLib/inc\xmc_gpio.h **** typedef enum XMC_GPIO_HWCTRL
 133:C:/Infineon/Tools/DAVE IDE/4.5.0.202105191637/eclipse/workspace/LED/Libraries/XMCLib/inc\xmc_gpio.h **** {
 134:C:/Infineon/Tools/DAVE IDE/4.5.0.202105191637/eclipse/workspace/LED/Libraries/XMCLib/inc\xmc_gpio.h ****   XMC_GPIO_HWCTRL_DISABLED     = 0x0U, /**<  Software control only */
 135:C:/Infineon/Tools/DAVE IDE/4.5.0.202105191637/eclipse/workspace/LED/Libraries/XMCLib/inc\xmc_gpio.h ****   XMC_GPIO_HWCTRL_PERIPHERAL1  = 0x1U, /**<  HWI0/HWO0 control path can override the software confi
 136:C:/Infineon/Tools/DAVE IDE/4.5.0.202105191637/eclipse/workspace/LED/Libraries/XMCLib/inc\xmc_gpio.h ****   XMC_GPIO_HWCTRL_PERIPHERAL2  = 0x2U  /**<  HWI1/HWO1 control path can override the software confi
 137:C:/Infineon/Tools/DAVE IDE/4.5.0.202105191637/eclipse/workspace/LED/Libraries/XMCLib/inc\xmc_gpio.h **** } XMC_GPIO_HWCTRL_t;
 138:C:/Infineon/Tools/DAVE IDE/4.5.0.202105191637/eclipse/workspace/LED/Libraries/XMCLib/inc\xmc_gpio.h **** 
 139:C:/Infineon/Tools/DAVE IDE/4.5.0.202105191637/eclipse/workspace/LED/Libraries/XMCLib/inc\xmc_gpio.h **** /**************************************************************************************************
 140:C:/Infineon/Tools/DAVE IDE/4.5.0.202105191637/eclipse/workspace/LED/Libraries/XMCLib/inc\xmc_gpio.h ****  * DEVICE FAMILY EXTENSIONS
 141:C:/Infineon/Tools/DAVE IDE/4.5.0.202105191637/eclipse/workspace/LED/Libraries/XMCLib/inc\xmc_gpio.h ****  **************************************************************************************************
 142:C:/Infineon/Tools/DAVE IDE/4.5.0.202105191637/eclipse/workspace/LED/Libraries/XMCLib/inc\xmc_gpio.h **** 
 143:C:/Infineon/Tools/DAVE IDE/4.5.0.202105191637/eclipse/workspace/LED/Libraries/XMCLib/inc\xmc_gpio.h **** #if UC_FAMILY == XMC1
 144:C:/Infineon/Tools/DAVE IDE/4.5.0.202105191637/eclipse/workspace/LED/Libraries/XMCLib/inc\xmc_gpio.h **** #include "xmc1_gpio.h"
 145:C:/Infineon/Tools/DAVE IDE/4.5.0.202105191637/eclipse/workspace/LED/Libraries/XMCLib/inc\xmc_gpio.h **** #elif UC_FAMILY == XMC4
 146:C:/Infineon/Tools/DAVE IDE/4.5.0.202105191637/eclipse/workspace/LED/Libraries/XMCLib/inc\xmc_gpio.h **** #include "xmc4_gpio.h"
 147:C:/Infineon/Tools/DAVE IDE/4.5.0.202105191637/eclipse/workspace/LED/Libraries/XMCLib/inc\xmc_gpio.h **** #else
 148:C:/Infineon/Tools/DAVE IDE/4.5.0.202105191637/eclipse/workspace/LED/Libraries/XMCLib/inc\xmc_gpio.h **** #error "xmc_gpio.h: family device not supported"
 149:C:/Infineon/Tools/DAVE IDE/4.5.0.202105191637/eclipse/workspace/LED/Libraries/XMCLib/inc\xmc_gpio.h **** #endif
 150:C:/Infineon/Tools/DAVE IDE/4.5.0.202105191637/eclipse/workspace/LED/Libraries/XMCLib/inc\xmc_gpio.h **** 
 151:C:/Infineon/Tools/DAVE IDE/4.5.0.202105191637/eclipse/workspace/LED/Libraries/XMCLib/inc\xmc_gpio.h **** /**************************************************************************************************
 152:C:/Infineon/Tools/DAVE IDE/4.5.0.202105191637/eclipse/workspace/LED/Libraries/XMCLib/inc\xmc_gpio.h ****  * API PROTOTYPES
 153:C:/Infineon/Tools/DAVE IDE/4.5.0.202105191637/eclipse/workspace/LED/Libraries/XMCLib/inc\xmc_gpio.h ****  **************************************************************************************************
 154:C:/Infineon/Tools/DAVE IDE/4.5.0.202105191637/eclipse/workspace/LED/Libraries/XMCLib/inc\xmc_gpio.h **** 
 155:C:/Infineon/Tools/DAVE IDE/4.5.0.202105191637/eclipse/workspace/LED/Libraries/XMCLib/inc\xmc_gpio.h **** #ifdef __cplusplus
 156:C:/Infineon/Tools/DAVE IDE/4.5.0.202105191637/eclipse/workspace/LED/Libraries/XMCLib/inc\xmc_gpio.h **** extern "C" {
 157:C:/Infineon/Tools/DAVE IDE/4.5.0.202105191637/eclipse/workspace/LED/Libraries/XMCLib/inc\xmc_gpio.h **** #endif
 158:C:/Infineon/Tools/DAVE IDE/4.5.0.202105191637/eclipse/workspace/LED/Libraries/XMCLib/inc\xmc_gpio.h **** 
 159:C:/Infineon/Tools/DAVE IDE/4.5.0.202105191637/eclipse/workspace/LED/Libraries/XMCLib/inc\xmc_gpio.h **** 
 160:C:/Infineon/Tools/DAVE IDE/4.5.0.202105191637/eclipse/workspace/LED/Libraries/XMCLib/inc\xmc_gpio.h **** /**
 161:C:/Infineon/Tools/DAVE IDE/4.5.0.202105191637/eclipse/workspace/LED/Libraries/XMCLib/inc\xmc_gpio.h ****  * @param  port	  Constant pointer pointing to GPIO port, to access port registers like Pn_OUT,Pn_O
 162:C:/Infineon/Tools/DAVE IDE/4.5.0.202105191637/eclipse/workspace/LED/Libraries/XMCLib/inc\xmc_gpio.h ****  * @param  pin	  Port pin number.
 163:C:/Infineon/Tools/DAVE IDE/4.5.0.202105191637/eclipse/workspace/LED/Libraries/XMCLib/inc\xmc_gpio.h ****  * @param  config GPIO configuration data structure. Refer data structure @ref XMC_GPIO_CONFIG_t fo
 164:C:/Infineon/Tools/DAVE IDE/4.5.0.202105191637/eclipse/workspace/LED/Libraries/XMCLib/inc\xmc_gpio.h ****  *
 165:C:/Infineon/Tools/DAVE IDE/4.5.0.202105191637/eclipse/workspace/LED/Libraries/XMCLib/inc\xmc_gpio.h ****  * @return None
 166:C:/Infineon/Tools/DAVE IDE/4.5.0.202105191637/eclipse/workspace/LED/Libraries/XMCLib/inc\xmc_gpio.h ****  *
 167:C:/Infineon/Tools/DAVE IDE/4.5.0.202105191637/eclipse/workspace/LED/Libraries/XMCLib/inc\xmc_gpio.h ****  * \par<b>Description:</b><br>
 168:C:/Infineon/Tools/DAVE IDE/4.5.0.202105191637/eclipse/workspace/LED/Libraries/XMCLib/inc\xmc_gpio.h ****  * \if XMC1
 169:C:/Infineon/Tools/DAVE IDE/4.5.0.202105191637/eclipse/workspace/LED/Libraries/XMCLib/inc\xmc_gpio.h ****  * Initializes input / output mode settings like, pull up / pull down devices,hysteresis, push pull
 170:C:/Infineon/Tools/DAVE IDE/4.5.0.202105191637/eclipse/workspace/LED/Libraries/XMCLib/inc\xmc_gpio.h ****  * Also configures alternate function outputs and clears hardware port control for a selected \a po
 171:C:/Infineon/Tools/DAVE IDE/4.5.0.202105191637/eclipse/workspace/LED/Libraries/XMCLib/inc\xmc_gpio.h ****  * \a config provides selected I/O settings. It configures hardware registers Pn_IOCR,Pn_OUT, Pn_OM
 172:C:/Infineon/Tools/DAVE IDE/4.5.0.202105191637/eclipse/workspace/LED/Libraries/XMCLib/inc\xmc_gpio.h ****  * \endif
 173:C:/Infineon/Tools/DAVE IDE/4.5.0.202105191637/eclipse/workspace/LED/Libraries/XMCLib/inc\xmc_gpio.h ****  * \if XMC4
 174:C:/Infineon/Tools/DAVE IDE/4.5.0.202105191637/eclipse/workspace/LED/Libraries/XMCLib/inc\xmc_gpio.h ****  * Initializes input / output mode settings like, pull up / pull down devices,push pull /open drain
 175:C:/Infineon/Tools/DAVE IDE/4.5.0.202105191637/eclipse/workspace/LED/Libraries/XMCLib/inc\xmc_gpio.h ****  * Also configures alternate function outputs and clears hardware port control for selected \a port
 176:C:/Infineon/Tools/DAVE IDE/4.5.0.202105191637/eclipse/workspace/LED/Libraries/XMCLib/inc\xmc_gpio.h ****  * It configures hardware registers Pn_IOCR,Pn_OUT,Pn_OMR,Pn_PDISC and Pn_PDR.\n
 177:C:/Infineon/Tools/DAVE IDE/4.5.0.202105191637/eclipse/workspace/LED/Libraries/XMCLib/inc\xmc_gpio.h ****  * \endif
 178:C:/Infineon/Tools/DAVE IDE/4.5.0.202105191637/eclipse/workspace/LED/Libraries/XMCLib/inc\xmc_gpio.h ****  *
 179:C:/Infineon/Tools/DAVE IDE/4.5.0.202105191637/eclipse/workspace/LED/Libraries/XMCLib/inc\xmc_gpio.h ****  * \par<b>Related APIs:</b><BR>
 180:C:/Infineon/Tools/DAVE IDE/4.5.0.202105191637/eclipse/workspace/LED/Libraries/XMCLib/inc\xmc_gpio.h ****  *  None
 181:C:/Infineon/Tools/DAVE IDE/4.5.0.202105191637/eclipse/workspace/LED/Libraries/XMCLib/inc\xmc_gpio.h ****  *
 182:C:/Infineon/Tools/DAVE IDE/4.5.0.202105191637/eclipse/workspace/LED/Libraries/XMCLib/inc\xmc_gpio.h ****  * \par<b>Note:</b><br>
 183:C:/Infineon/Tools/DAVE IDE/4.5.0.202105191637/eclipse/workspace/LED/Libraries/XMCLib/inc\xmc_gpio.h ****  * This API is called in definition of DAVE_init by code generation and therefore should not be exp
 184:C:/Infineon/Tools/DAVE IDE/4.5.0.202105191637/eclipse/workspace/LED/Libraries/XMCLib/inc\xmc_gpio.h ****  * for the normal operation. Use other APIs only after DAVE_init is called successfully (returns DA
 185:C:/Infineon/Tools/DAVE IDE/4.5.0.202105191637/eclipse/workspace/LED/Libraries/XMCLib/inc\xmc_gpio.h ****  *
 186:C:/Infineon/Tools/DAVE IDE/4.5.0.202105191637/eclipse/workspace/LED/Libraries/XMCLib/inc\xmc_gpio.h ****  *
 187:C:/Infineon/Tools/DAVE IDE/4.5.0.202105191637/eclipse/workspace/LED/Libraries/XMCLib/inc\xmc_gpio.h ****  */
 188:C:/Infineon/Tools/DAVE IDE/4.5.0.202105191637/eclipse/workspace/LED/Libraries/XMCLib/inc\xmc_gpio.h **** 
 189:C:/Infineon/Tools/DAVE IDE/4.5.0.202105191637/eclipse/workspace/LED/Libraries/XMCLib/inc\xmc_gpio.h **** 
 190:C:/Infineon/Tools/DAVE IDE/4.5.0.202105191637/eclipse/workspace/LED/Libraries/XMCLib/inc\xmc_gpio.h **** void XMC_GPIO_Init(XMC_GPIO_PORT_t *const port, const uint8_t pin, const XMC_GPIO_CONFIG_t *const c
 191:C:/Infineon/Tools/DAVE IDE/4.5.0.202105191637/eclipse/workspace/LED/Libraries/XMCLib/inc\xmc_gpio.h **** 
 192:C:/Infineon/Tools/DAVE IDE/4.5.0.202105191637/eclipse/workspace/LED/Libraries/XMCLib/inc\xmc_gpio.h **** /**
 193:C:/Infineon/Tools/DAVE IDE/4.5.0.202105191637/eclipse/workspace/LED/Libraries/XMCLib/inc\xmc_gpio.h ****  *
 194:C:/Infineon/Tools/DAVE IDE/4.5.0.202105191637/eclipse/workspace/LED/Libraries/XMCLib/inc\xmc_gpio.h ****  * @param  port	Constant pointer pointing to GPIO port, to access hardware register Pn_IOCR.
 195:C:/Infineon/Tools/DAVE IDE/4.5.0.202105191637/eclipse/workspace/LED/Libraries/XMCLib/inc\xmc_gpio.h ****  * @param  pin	Port pin number.
 196:C:/Infineon/Tools/DAVE IDE/4.5.0.202105191637/eclipse/workspace/LED/Libraries/XMCLib/inc\xmc_gpio.h ****  * @param  mode input / output functionality selection. Refer @ref XMC_GPIO_MODE_t for valid values
 197:C:/Infineon/Tools/DAVE IDE/4.5.0.202105191637/eclipse/workspace/LED/Libraries/XMCLib/inc\xmc_gpio.h ****  *
 198:C:/Infineon/Tools/DAVE IDE/4.5.0.202105191637/eclipse/workspace/LED/Libraries/XMCLib/inc\xmc_gpio.h ****  * @return None
 199:C:/Infineon/Tools/DAVE IDE/4.5.0.202105191637/eclipse/workspace/LED/Libraries/XMCLib/inc\xmc_gpio.h ****  *
 200:C:/Infineon/Tools/DAVE IDE/4.5.0.202105191637/eclipse/workspace/LED/Libraries/XMCLib/inc\xmc_gpio.h ****  * \par<b>Description:</b><br>
 201:C:/Infineon/Tools/DAVE IDE/4.5.0.202105191637/eclipse/workspace/LED/Libraries/XMCLib/inc\xmc_gpio.h ****  * Sets digital input and output driver functionality and characteristics of a GPIO port pin. It co
 202:C:/Infineon/Tools/DAVE IDE/4.5.0.202105191637/eclipse/workspace/LED/Libraries/XMCLib/inc\xmc_gpio.h ****  * registers Pn_IOCR. \a mode is initially configured during initialization in XMC_GPIO_Init(). Cal
 203:C:/Infineon/Tools/DAVE IDE/4.5.0.202105191637/eclipse/workspace/LED/Libraries/XMCLib/inc\xmc_gpio.h ****  * the port direction functionality as needed later in the program.
 204:C:/Infineon/Tools/DAVE IDE/4.5.0.202105191637/eclipse/workspace/LED/Libraries/XMCLib/inc\xmc_gpio.h ****  *
 205:C:/Infineon/Tools/DAVE IDE/4.5.0.202105191637/eclipse/workspace/LED/Libraries/XMCLib/inc\xmc_gpio.h ****  * \par<b>Related APIs:</b><BR>
 206:C:/Infineon/Tools/DAVE IDE/4.5.0.202105191637/eclipse/workspace/LED/Libraries/XMCLib/inc\xmc_gpio.h ****  *  None
 207:C:/Infineon/Tools/DAVE IDE/4.5.0.202105191637/eclipse/workspace/LED/Libraries/XMCLib/inc\xmc_gpio.h ****  *
 208:C:/Infineon/Tools/DAVE IDE/4.5.0.202105191637/eclipse/workspace/LED/Libraries/XMCLib/inc\xmc_gpio.h ****  */
 209:C:/Infineon/Tools/DAVE IDE/4.5.0.202105191637/eclipse/workspace/LED/Libraries/XMCLib/inc\xmc_gpio.h **** 
 210:C:/Infineon/Tools/DAVE IDE/4.5.0.202105191637/eclipse/workspace/LED/Libraries/XMCLib/inc\xmc_gpio.h **** void XMC_GPIO_SetMode(XMC_GPIO_PORT_t *const port, const uint8_t pin, const XMC_GPIO_MODE_t mode);
 211:C:/Infineon/Tools/DAVE IDE/4.5.0.202105191637/eclipse/workspace/LED/Libraries/XMCLib/inc\xmc_gpio.h **** 
 212:C:/Infineon/Tools/DAVE IDE/4.5.0.202105191637/eclipse/workspace/LED/Libraries/XMCLib/inc\xmc_gpio.h **** 
 213:C:/Infineon/Tools/DAVE IDE/4.5.0.202105191637/eclipse/workspace/LED/Libraries/XMCLib/inc\xmc_gpio.h **** /**
 214:C:/Infineon/Tools/DAVE IDE/4.5.0.202105191637/eclipse/workspace/LED/Libraries/XMCLib/inc\xmc_gpio.h ****  *
 215:C:/Infineon/Tools/DAVE IDE/4.5.0.202105191637/eclipse/workspace/LED/Libraries/XMCLib/inc\xmc_gpio.h ****  * @param  port	 Constant pointer pointing to GPIO port, to access hardware register Pn_OMR.
 216:C:/Infineon/Tools/DAVE IDE/4.5.0.202105191637/eclipse/workspace/LED/Libraries/XMCLib/inc\xmc_gpio.h ****  * @param  pin	 Port pin number.
 217:C:/Infineon/Tools/DAVE IDE/4.5.0.202105191637/eclipse/workspace/LED/Libraries/XMCLib/inc\xmc_gpio.h ****  * @param  level output level selection. Refer @ref XMC_GPIO_OUTPUT_LEVEL_t for valid values.
 218:C:/Infineon/Tools/DAVE IDE/4.5.0.202105191637/eclipse/workspace/LED/Libraries/XMCLib/inc\xmc_gpio.h ****  *
 219:C:/Infineon/Tools/DAVE IDE/4.5.0.202105191637/eclipse/workspace/LED/Libraries/XMCLib/inc\xmc_gpio.h ****  * @return None
 220:C:/Infineon/Tools/DAVE IDE/4.5.0.202105191637/eclipse/workspace/LED/Libraries/XMCLib/inc\xmc_gpio.h ****  *
 221:C:/Infineon/Tools/DAVE IDE/4.5.0.202105191637/eclipse/workspace/LED/Libraries/XMCLib/inc\xmc_gpio.h ****  * \par<b>Description:</b><br>
 222:C:/Infineon/Tools/DAVE IDE/4.5.0.202105191637/eclipse/workspace/LED/Libraries/XMCLib/inc\xmc_gpio.h ****  * Set port pin output level to high or low.It configures hardware registers Pn_OMR.\a level is ini
 223:C:/Infineon/Tools/DAVE IDE/4.5.0.202105191637/eclipse/workspace/LED/Libraries/XMCLib/inc\xmc_gpio.h ****  * configured during initialization in XMC_GPIO_Init(). Call this API to alter output level as need
 224:C:/Infineon/Tools/DAVE IDE/4.5.0.202105191637/eclipse/workspace/LED/Libraries/XMCLib/inc\xmc_gpio.h ****  *
 225:C:/Infineon/Tools/DAVE IDE/4.5.0.202105191637/eclipse/workspace/LED/Libraries/XMCLib/inc\xmc_gpio.h ****  * \par<b>Related APIs:</b><BR>
 226:C:/Infineon/Tools/DAVE IDE/4.5.0.202105191637/eclipse/workspace/LED/Libraries/XMCLib/inc\xmc_gpio.h ****  *  XMC_GPIO_SetOutputHigh(), XMC_GPIO_SetOutputLow().
 227:C:/Infineon/Tools/DAVE IDE/4.5.0.202105191637/eclipse/workspace/LED/Libraries/XMCLib/inc\xmc_gpio.h ****  *
 228:C:/Infineon/Tools/DAVE IDE/4.5.0.202105191637/eclipse/workspace/LED/Libraries/XMCLib/inc\xmc_gpio.h ****  * \par<b>Note:</b><br>
 229:C:/Infineon/Tools/DAVE IDE/4.5.0.202105191637/eclipse/workspace/LED/Libraries/XMCLib/inc\xmc_gpio.h ****  * Prior to this api, user has to configure port pin to output mode using XMC_GPIO_SetMode().
 230:C:/Infineon/Tools/DAVE IDE/4.5.0.202105191637/eclipse/workspace/LED/Libraries/XMCLib/inc\xmc_gpio.h ****  *
 231:C:/Infineon/Tools/DAVE IDE/4.5.0.202105191637/eclipse/workspace/LED/Libraries/XMCLib/inc\xmc_gpio.h ****  */
 232:C:/Infineon/Tools/DAVE IDE/4.5.0.202105191637/eclipse/workspace/LED/Libraries/XMCLib/inc\xmc_gpio.h **** 
 233:C:/Infineon/Tools/DAVE IDE/4.5.0.202105191637/eclipse/workspace/LED/Libraries/XMCLib/inc\xmc_gpio.h **** 
 234:C:/Infineon/Tools/DAVE IDE/4.5.0.202105191637/eclipse/workspace/LED/Libraries/XMCLib/inc\xmc_gpio.h **** __STATIC_INLINE void XMC_GPIO_SetOutputLevel(XMC_GPIO_PORT_t *const port, const uint8_t pin, const 
 235:C:/Infineon/Tools/DAVE IDE/4.5.0.202105191637/eclipse/workspace/LED/Libraries/XMCLib/inc\xmc_gpio.h **** {
 236:C:/Infineon/Tools/DAVE IDE/4.5.0.202105191637/eclipse/workspace/LED/Libraries/XMCLib/inc\xmc_gpio.h ****   XMC_ASSERT("XMC_GPIO_SetOutputLevel: Invalid port", XMC_GPIO_CHECK_OUTPUT_PORT(port));
 237:C:/Infineon/Tools/DAVE IDE/4.5.0.202105191637/eclipse/workspace/LED/Libraries/XMCLib/inc\xmc_gpio.h ****   XMC_ASSERT("XMC_GPIO_SetOutputLevel: Invalid output level", XMC_GPIO_CHECK_OUTPUT_LEVEL(level));
 238:C:/Infineon/Tools/DAVE IDE/4.5.0.202105191637/eclipse/workspace/LED/Libraries/XMCLib/inc\xmc_gpio.h **** 
 239:C:/Infineon/Tools/DAVE IDE/4.5.0.202105191637/eclipse/workspace/LED/Libraries/XMCLib/inc\xmc_gpio.h ****   port->OMR = (uint32_t)level << pin;
 240:C:/Infineon/Tools/DAVE IDE/4.5.0.202105191637/eclipse/workspace/LED/Libraries/XMCLib/inc\xmc_gpio.h **** }
 241:C:/Infineon/Tools/DAVE IDE/4.5.0.202105191637/eclipse/workspace/LED/Libraries/XMCLib/inc\xmc_gpio.h **** 
 242:C:/Infineon/Tools/DAVE IDE/4.5.0.202105191637/eclipse/workspace/LED/Libraries/XMCLib/inc\xmc_gpio.h **** 
 243:C:/Infineon/Tools/DAVE IDE/4.5.0.202105191637/eclipse/workspace/LED/Libraries/XMCLib/inc\xmc_gpio.h **** /**
 244:C:/Infineon/Tools/DAVE IDE/4.5.0.202105191637/eclipse/workspace/LED/Libraries/XMCLib/inc\xmc_gpio.h ****  * @param  port constant pointer pointing to GPIO port, to access hardware register Pn_OMR.
 245:C:/Infineon/Tools/DAVE IDE/4.5.0.202105191637/eclipse/workspace/LED/Libraries/XMCLib/inc\xmc_gpio.h ****  * @param  pin	Port pin number.
 246:C:/Infineon/Tools/DAVE IDE/4.5.0.202105191637/eclipse/workspace/LED/Libraries/XMCLib/inc\xmc_gpio.h ****  *
 247:C:/Infineon/Tools/DAVE IDE/4.5.0.202105191637/eclipse/workspace/LED/Libraries/XMCLib/inc\xmc_gpio.h ****  * @return None
 248:C:/Infineon/Tools/DAVE IDE/4.5.0.202105191637/eclipse/workspace/LED/Libraries/XMCLib/inc\xmc_gpio.h ****  *
 249:C:/Infineon/Tools/DAVE IDE/4.5.0.202105191637/eclipse/workspace/LED/Libraries/XMCLib/inc\xmc_gpio.h ****  * \par<b>Description:</b><br>
 250:C:/Infineon/Tools/DAVE IDE/4.5.0.202105191637/eclipse/workspace/LED/Libraries/XMCLib/inc\xmc_gpio.h ****  *  Sets port pin output to high. It configures hardware registers Pn_OMR.
 251:C:/Infineon/Tools/DAVE IDE/4.5.0.202105191637/eclipse/workspace/LED/Libraries/XMCLib/inc\xmc_gpio.h ****  *
 252:C:/Infineon/Tools/DAVE IDE/4.5.0.202105191637/eclipse/workspace/LED/Libraries/XMCLib/inc\xmc_gpio.h ****  *  \par<b>Related APIs:</b><BR>
 253:C:/Infineon/Tools/DAVE IDE/4.5.0.202105191637/eclipse/workspace/LED/Libraries/XMCLib/inc\xmc_gpio.h ****  *  XMC_GPIO_SetOutputLow()
 254:C:/Infineon/Tools/DAVE IDE/4.5.0.202105191637/eclipse/workspace/LED/Libraries/XMCLib/inc\xmc_gpio.h ****  *
 255:C:/Infineon/Tools/DAVE IDE/4.5.0.202105191637/eclipse/workspace/LED/Libraries/XMCLib/inc\xmc_gpio.h ****  * \par<b>Note:</b><br>
 256:C:/Infineon/Tools/DAVE IDE/4.5.0.202105191637/eclipse/workspace/LED/Libraries/XMCLib/inc\xmc_gpio.h ****  * Prior to this api, user has to configure port pin to output mode using XMC_GPIO_SetMode().\n
 257:C:/Infineon/Tools/DAVE IDE/4.5.0.202105191637/eclipse/workspace/LED/Libraries/XMCLib/inc\xmc_gpio.h ****  * Register Pn_OMR is virtual and does not contain any flip-flop. A read action delivers the value 
 258:C:/Infineon/Tools/DAVE IDE/4.5.0.202105191637/eclipse/workspace/LED/Libraries/XMCLib/inc\xmc_gpio.h ****  *
 259:C:/Infineon/Tools/DAVE IDE/4.5.0.202105191637/eclipse/workspace/LED/Libraries/XMCLib/inc\xmc_gpio.h ****  */
 260:C:/Infineon/Tools/DAVE IDE/4.5.0.202105191637/eclipse/workspace/LED/Libraries/XMCLib/inc\xmc_gpio.h **** 
 261:C:/Infineon/Tools/DAVE IDE/4.5.0.202105191637/eclipse/workspace/LED/Libraries/XMCLib/inc\xmc_gpio.h **** __STATIC_INLINE void XMC_GPIO_SetOutputHigh(XMC_GPIO_PORT_t *const port, const uint8_t pin)
 262:C:/Infineon/Tools/DAVE IDE/4.5.0.202105191637/eclipse/workspace/LED/Libraries/XMCLib/inc\xmc_gpio.h **** {
 263:C:/Infineon/Tools/DAVE IDE/4.5.0.202105191637/eclipse/workspace/LED/Libraries/XMCLib/inc\xmc_gpio.h ****   XMC_ASSERT("XMC_GPIO_SetOutputHigh: Invalid port", XMC_GPIO_CHECK_OUTPUT_PORT(port));
 264:C:/Infineon/Tools/DAVE IDE/4.5.0.202105191637/eclipse/workspace/LED/Libraries/XMCLib/inc\xmc_gpio.h **** 
 265:C:/Infineon/Tools/DAVE IDE/4.5.0.202105191637/eclipse/workspace/LED/Libraries/XMCLib/inc\xmc_gpio.h ****   port->OMR = (uint32_t)0x1U << pin;
 266:C:/Infineon/Tools/DAVE IDE/4.5.0.202105191637/eclipse/workspace/LED/Libraries/XMCLib/inc\xmc_gpio.h **** }
 267:C:/Infineon/Tools/DAVE IDE/4.5.0.202105191637/eclipse/workspace/LED/Libraries/XMCLib/inc\xmc_gpio.h **** 
 268:C:/Infineon/Tools/DAVE IDE/4.5.0.202105191637/eclipse/workspace/LED/Libraries/XMCLib/inc\xmc_gpio.h **** /**
 269:C:/Infineon/Tools/DAVE IDE/4.5.0.202105191637/eclipse/workspace/LED/Libraries/XMCLib/inc\xmc_gpio.h ****  *
 270:C:/Infineon/Tools/DAVE IDE/4.5.0.202105191637/eclipse/workspace/LED/Libraries/XMCLib/inc\xmc_gpio.h ****  * @param  port	constant pointer pointing to GPIO port, to access hardware register Pn_OMR.
 271:C:/Infineon/Tools/DAVE IDE/4.5.0.202105191637/eclipse/workspace/LED/Libraries/XMCLib/inc\xmc_gpio.h ****  * @param  pin	port pin number.
 272:C:/Infineon/Tools/DAVE IDE/4.5.0.202105191637/eclipse/workspace/LED/Libraries/XMCLib/inc\xmc_gpio.h ****  *
 273:C:/Infineon/Tools/DAVE IDE/4.5.0.202105191637/eclipse/workspace/LED/Libraries/XMCLib/inc\xmc_gpio.h ****  * @return  None
 274:C:/Infineon/Tools/DAVE IDE/4.5.0.202105191637/eclipse/workspace/LED/Libraries/XMCLib/inc\xmc_gpio.h ****  *
 275:C:/Infineon/Tools/DAVE IDE/4.5.0.202105191637/eclipse/workspace/LED/Libraries/XMCLib/inc\xmc_gpio.h ****  *\par<b>Description:</b><br>
 276:C:/Infineon/Tools/DAVE IDE/4.5.0.202105191637/eclipse/workspace/LED/Libraries/XMCLib/inc\xmc_gpio.h ****  * Sets port pin output to low. It configures hardware registers Pn_OMR.\n
 277:C:/Infineon/Tools/DAVE IDE/4.5.0.202105191637/eclipse/workspace/LED/Libraries/XMCLib/inc\xmc_gpio.h ****  *
 278:C:/Infineon/Tools/DAVE IDE/4.5.0.202105191637/eclipse/workspace/LED/Libraries/XMCLib/inc\xmc_gpio.h ****  * \par<b>Related APIs:</b><BR>>
 279:C:/Infineon/Tools/DAVE IDE/4.5.0.202105191637/eclipse/workspace/LED/Libraries/XMCLib/inc\xmc_gpio.h ****  * XMC_GPIO_SetOutputHigh()
 280:C:/Infineon/Tools/DAVE IDE/4.5.0.202105191637/eclipse/workspace/LED/Libraries/XMCLib/inc\xmc_gpio.h ****  *
 281:C:/Infineon/Tools/DAVE IDE/4.5.0.202105191637/eclipse/workspace/LED/Libraries/XMCLib/inc\xmc_gpio.h ****  *\par<b>Note:</b><br>
 282:C:/Infineon/Tools/DAVE IDE/4.5.0.202105191637/eclipse/workspace/LED/Libraries/XMCLib/inc\xmc_gpio.h ****  * Prior to this api, user has to configure port pin to output mode using XMC_GPIO_SetMode().
 283:C:/Infineon/Tools/DAVE IDE/4.5.0.202105191637/eclipse/workspace/LED/Libraries/XMCLib/inc\xmc_gpio.h ****  * Register Pn_OMR is virtual and does not contain any flip-flop. A read action delivers the value 
 284:C:/Infineon/Tools/DAVE IDE/4.5.0.202105191637/eclipse/workspace/LED/Libraries/XMCLib/inc\xmc_gpio.h ****  *
 285:C:/Infineon/Tools/DAVE IDE/4.5.0.202105191637/eclipse/workspace/LED/Libraries/XMCLib/inc\xmc_gpio.h ****  */
 286:C:/Infineon/Tools/DAVE IDE/4.5.0.202105191637/eclipse/workspace/LED/Libraries/XMCLib/inc\xmc_gpio.h **** 
 287:C:/Infineon/Tools/DAVE IDE/4.5.0.202105191637/eclipse/workspace/LED/Libraries/XMCLib/inc\xmc_gpio.h **** __STATIC_INLINE void XMC_GPIO_SetOutputLow(XMC_GPIO_PORT_t *const port, const uint8_t pin)
 288:C:/Infineon/Tools/DAVE IDE/4.5.0.202105191637/eclipse/workspace/LED/Libraries/XMCLib/inc\xmc_gpio.h **** {
 289:C:/Infineon/Tools/DAVE IDE/4.5.0.202105191637/eclipse/workspace/LED/Libraries/XMCLib/inc\xmc_gpio.h ****   XMC_ASSERT("XMC_GPIO_SetOutputLow: Invalid port", XMC_GPIO_CHECK_OUTPUT_PORT(port));
 290:C:/Infineon/Tools/DAVE IDE/4.5.0.202105191637/eclipse/workspace/LED/Libraries/XMCLib/inc\xmc_gpio.h **** 
 291:C:/Infineon/Tools/DAVE IDE/4.5.0.202105191637/eclipse/workspace/LED/Libraries/XMCLib/inc\xmc_gpio.h ****   port->OMR = 0x10000U << pin;
 292:C:/Infineon/Tools/DAVE IDE/4.5.0.202105191637/eclipse/workspace/LED/Libraries/XMCLib/inc\xmc_gpio.h **** }
 293:C:/Infineon/Tools/DAVE IDE/4.5.0.202105191637/eclipse/workspace/LED/Libraries/XMCLib/inc\xmc_gpio.h **** 
 294:C:/Infineon/Tools/DAVE IDE/4.5.0.202105191637/eclipse/workspace/LED/Libraries/XMCLib/inc\xmc_gpio.h **** /**
 295:C:/Infineon/Tools/DAVE IDE/4.5.0.202105191637/eclipse/workspace/LED/Libraries/XMCLib/inc\xmc_gpio.h ****  *
 296:C:/Infineon/Tools/DAVE IDE/4.5.0.202105191637/eclipse/workspace/LED/Libraries/XMCLib/inc\xmc_gpio.h ****  * @param port constant pointer pointing to GPIO port, to access hardware register Pn_OMR.
 297:C:/Infineon/Tools/DAVE IDE/4.5.0.202105191637/eclipse/workspace/LED/Libraries/XMCLib/inc\xmc_gpio.h ****  * @param pin  port pin number.
 298:C:/Infineon/Tools/DAVE IDE/4.5.0.202105191637/eclipse/workspace/LED/Libraries/XMCLib/inc\xmc_gpio.h ****  *
 299:C:/Infineon/Tools/DAVE IDE/4.5.0.202105191637/eclipse/workspace/LED/Libraries/XMCLib/inc\xmc_gpio.h ****  * @return None
 300:C:/Infineon/Tools/DAVE IDE/4.5.0.202105191637/eclipse/workspace/LED/Libraries/XMCLib/inc\xmc_gpio.h ****  *
 301:C:/Infineon/Tools/DAVE IDE/4.5.0.202105191637/eclipse/workspace/LED/Libraries/XMCLib/inc\xmc_gpio.h ****  * \par<b>Description:</b><br>
 302:C:/Infineon/Tools/DAVE IDE/4.5.0.202105191637/eclipse/workspace/LED/Libraries/XMCLib/inc\xmc_gpio.h ****  * Configures port pin output to Toggle. It configures hardware registers Pn_OMR.
 303:C:/Infineon/Tools/DAVE IDE/4.5.0.202105191637/eclipse/workspace/LED/Libraries/XMCLib/inc\xmc_gpio.h ****  *
 304:C:/Infineon/Tools/DAVE IDE/4.5.0.202105191637/eclipse/workspace/LED/Libraries/XMCLib/inc\xmc_gpio.h ****  * \par<b>Related APIs:</b><BR>
 305:C:/Infineon/Tools/DAVE IDE/4.5.0.202105191637/eclipse/workspace/LED/Libraries/XMCLib/inc\xmc_gpio.h ****  * XMC_GPIO_SetOutputHigh(), XMC_GPIO_SetOutputLow().
 306:C:/Infineon/Tools/DAVE IDE/4.5.0.202105191637/eclipse/workspace/LED/Libraries/XMCLib/inc\xmc_gpio.h ****  *
 307:C:/Infineon/Tools/DAVE IDE/4.5.0.202105191637/eclipse/workspace/LED/Libraries/XMCLib/inc\xmc_gpio.h ****  * \par<b>Note:</b><br>
 308:C:/Infineon/Tools/DAVE IDE/4.5.0.202105191637/eclipse/workspace/LED/Libraries/XMCLib/inc\xmc_gpio.h ****  * Prior to this api, user has to configure port pin to output mode using XMC_GPIO_SetMode(). Regis
 309:C:/Infineon/Tools/DAVE IDE/4.5.0.202105191637/eclipse/workspace/LED/Libraries/XMCLib/inc\xmc_gpio.h ****  * and does not contain any flip-flop. A read action delivers the value of 0.
 310:C:/Infineon/Tools/DAVE IDE/4.5.0.202105191637/eclipse/workspace/LED/Libraries/XMCLib/inc\xmc_gpio.h ****  *
 311:C:/Infineon/Tools/DAVE IDE/4.5.0.202105191637/eclipse/workspace/LED/Libraries/XMCLib/inc\xmc_gpio.h ****  */
 312:C:/Infineon/Tools/DAVE IDE/4.5.0.202105191637/eclipse/workspace/LED/Libraries/XMCLib/inc\xmc_gpio.h **** 
 313:C:/Infineon/Tools/DAVE IDE/4.5.0.202105191637/eclipse/workspace/LED/Libraries/XMCLib/inc\xmc_gpio.h **** __STATIC_INLINE void XMC_GPIO_ToggleOutput(XMC_GPIO_PORT_t *const port, const uint8_t pin)
 314:C:/Infineon/Tools/DAVE IDE/4.5.0.202105191637/eclipse/workspace/LED/Libraries/XMCLib/inc\xmc_gpio.h **** {
 315:C:/Infineon/Tools/DAVE IDE/4.5.0.202105191637/eclipse/workspace/LED/Libraries/XMCLib/inc\xmc_gpio.h ****   XMC_ASSERT("XMC_GPIO_ToggleOutput: Invalid port", XMC_GPIO_CHECK_OUTPUT_PORT(port));
 316:C:/Infineon/Tools/DAVE IDE/4.5.0.202105191637/eclipse/workspace/LED/Libraries/XMCLib/inc\xmc_gpio.h **** 
 317:C:/Infineon/Tools/DAVE IDE/4.5.0.202105191637/eclipse/workspace/LED/Libraries/XMCLib/inc\xmc_gpio.h ****   port->OMR = 0x10001U << pin;
 318:C:/Infineon/Tools/DAVE IDE/4.5.0.202105191637/eclipse/workspace/LED/Libraries/XMCLib/inc\xmc_gpio.h **** }
 319:C:/Infineon/Tools/DAVE IDE/4.5.0.202105191637/eclipse/workspace/LED/Libraries/XMCLib/inc\xmc_gpio.h **** 
 320:C:/Infineon/Tools/DAVE IDE/4.5.0.202105191637/eclipse/workspace/LED/Libraries/XMCLib/inc\xmc_gpio.h **** /**
 321:C:/Infineon/Tools/DAVE IDE/4.5.0.202105191637/eclipse/workspace/LED/Libraries/XMCLib/inc\xmc_gpio.h ****  *
 322:C:/Infineon/Tools/DAVE IDE/4.5.0.202105191637/eclipse/workspace/LED/Libraries/XMCLib/inc\xmc_gpio.h ****  * @param port constant pointer pointing to GPIO port, to access hardware register Pn_IN.
 323:C:/Infineon/Tools/DAVE IDE/4.5.0.202105191637/eclipse/workspace/LED/Libraries/XMCLib/inc\xmc_gpio.h ****  * @param pin  Port pin number.
 324:C:/Infineon/Tools/DAVE IDE/4.5.0.202105191637/eclipse/workspace/LED/Libraries/XMCLib/inc\xmc_gpio.h ****  *
 325:C:/Infineon/Tools/DAVE IDE/4.5.0.202105191637/eclipse/workspace/LED/Libraries/XMCLib/inc\xmc_gpio.h ****  * @return uint32_t pin logic level status.
 326:C:/Infineon/Tools/DAVE IDE/4.5.0.202105191637/eclipse/workspace/LED/Libraries/XMCLib/inc\xmc_gpio.h ****  *
 327:C:/Infineon/Tools/DAVE IDE/4.5.0.202105191637/eclipse/workspace/LED/Libraries/XMCLib/inc\xmc_gpio.h ****  *\par<b>Description:</b><br>
 328:C:/Infineon/Tools/DAVE IDE/4.5.0.202105191637/eclipse/workspace/LED/Libraries/XMCLib/inc\xmc_gpio.h ****  * Reads the Pn_IN register and returns the current logical value at the GPIO pin.
 329:C:/Infineon/Tools/DAVE IDE/4.5.0.202105191637/eclipse/workspace/LED/Libraries/XMCLib/inc\xmc_gpio.h ****  *
 330:C:/Infineon/Tools/DAVE IDE/4.5.0.202105191637/eclipse/workspace/LED/Libraries/XMCLib/inc\xmc_gpio.h ****  * \par<b>Related APIs:</b><BR>
 331:C:/Infineon/Tools/DAVE IDE/4.5.0.202105191637/eclipse/workspace/LED/Libraries/XMCLib/inc\xmc_gpio.h ****  * None
 332:C:/Infineon/Tools/DAVE IDE/4.5.0.202105191637/eclipse/workspace/LED/Libraries/XMCLib/inc\xmc_gpio.h ****  *
 333:C:/Infineon/Tools/DAVE IDE/4.5.0.202105191637/eclipse/workspace/LED/Libraries/XMCLib/inc\xmc_gpio.h ****  * \par<b>Note:</b><br>
 334:C:/Infineon/Tools/DAVE IDE/4.5.0.202105191637/eclipse/workspace/LED/Libraries/XMCLib/inc\xmc_gpio.h ****  * Prior to this api, user has to configure port pin to input mode using XMC_GPIO_SetMode().
 335:C:/Infineon/Tools/DAVE IDE/4.5.0.202105191637/eclipse/workspace/LED/Libraries/XMCLib/inc\xmc_gpio.h ****  *
 336:C:/Infineon/Tools/DAVE IDE/4.5.0.202105191637/eclipse/workspace/LED/Libraries/XMCLib/inc\xmc_gpio.h ****  */
 337:C:/Infineon/Tools/DAVE IDE/4.5.0.202105191637/eclipse/workspace/LED/Libraries/XMCLib/inc\xmc_gpio.h **** 
 338:C:/Infineon/Tools/DAVE IDE/4.5.0.202105191637/eclipse/workspace/LED/Libraries/XMCLib/inc\xmc_gpio.h **** __STATIC_INLINE uint32_t XMC_GPIO_GetInput(XMC_GPIO_PORT_t *const port, const uint8_t pin)
 339:C:/Infineon/Tools/DAVE IDE/4.5.0.202105191637/eclipse/workspace/LED/Libraries/XMCLib/inc\xmc_gpio.h **** {
  27              	 .loc 1 339 0
  28              	 .cfi_startproc
  29              	 
  30              	 
  31              	 
  32 0000 80B4     	 push {r7}
  33              	.LCFI0:
  34              	 .cfi_def_cfa_offset 4
  35              	 .cfi_offset 7,-4
  36 0002 83B0     	 sub sp,sp,#12
  37              	.LCFI1:
  38              	 .cfi_def_cfa_offset 16
  39 0004 00AF     	 add r7,sp,#0
  40              	.LCFI2:
  41              	 .cfi_def_cfa_register 7
  42 0006 7860     	 str r0,[r7,#4]
  43 0008 0B46     	 mov r3,r1
  44 000a FB70     	 strb r3,[r7,#3]
 340:C:/Infineon/Tools/DAVE IDE/4.5.0.202105191637/eclipse/workspace/LED/Libraries/XMCLib/inc\xmc_gpio.h ****   XMC_ASSERT("XMC_GPIO_GetInput: Invalid port", XMC_GPIO_CHECK_PORT(port));
 341:C:/Infineon/Tools/DAVE IDE/4.5.0.202105191637/eclipse/workspace/LED/Libraries/XMCLib/inc\xmc_gpio.h **** 
 342:C:/Infineon/Tools/DAVE IDE/4.5.0.202105191637/eclipse/workspace/LED/Libraries/XMCLib/inc\xmc_gpio.h ****   return (((port->IN) >> pin) & 0x1U);
  45              	 .loc 1 342 0
  46 000c 7B68     	 ldr r3,[r7,#4]
  47 000e 5A6A     	 ldr r2,[r3,#36]
  48 0010 FB78     	 ldrb r3,[r7,#3]
  49 0012 22FA03F3 	 lsr r3,r2,r3
  50 0016 03F00103 	 and r3,r3,#1
 343:C:/Infineon/Tools/DAVE IDE/4.5.0.202105191637/eclipse/workspace/LED/Libraries/XMCLib/inc\xmc_gpio.h **** }
  51              	 .loc 1 343 0
  52 001a 1846     	 mov r0,r3
  53 001c 0C37     	 adds r7,r7,#12
  54              	.LCFI3:
  55              	 .cfi_def_cfa_offset 4
  56 001e BD46     	 mov sp,r7
  57              	.LCFI4:
  58              	 .cfi_def_cfa_register 13
  59              	 
  60 0020 5DF8047B 	 ldr r7,[sp],#4
  61              	.LCFI5:
  62              	 .cfi_restore 7
  63              	 .cfi_def_cfa_offset 0
  64 0024 7047     	 bx lr
  65              	 .cfi_endproc
  66              	.LFE176:
  68 0026 00BF     	 .section .text.DIGITAL_IO_GetInput,"ax",%progbits
  69              	 .align 2
  70              	 .thumb
  71              	 .thumb_func
  73              	DIGITAL_IO_GetInput:
  74              	.LFB184:
  75              	 .file 2 "C:/Infineon/Tools/DAVE IDE/4.5.0.202105191637/eclipse/workspace/LED/Dave/Generated/DIGITAL_IO/digital_io.h"
   1:C:/Infineon/Tools/DAVE IDE/4.5.0.202105191637/eclipse/workspace/LED/Dave/Generated/DIGITAL_IO\digital_io.h **** /*
   2:C:/Infineon/Tools/DAVE IDE/4.5.0.202105191637/eclipse/workspace/LED/Dave/Generated/DIGITAL_IO\digital_io.h ****  *
   3:C:/Infineon/Tools/DAVE IDE/4.5.0.202105191637/eclipse/workspace/LED/Dave/Generated/DIGITAL_IO\digital_io.h ****  * @file digital_io.h
   4:C:/Infineon/Tools/DAVE IDE/4.5.0.202105191637/eclipse/workspace/LED/Dave/Generated/DIGITAL_IO\digital_io.h ****  * @date 2021-01-08
   5:C:/Infineon/Tools/DAVE IDE/4.5.0.202105191637/eclipse/workspace/LED/Dave/Generated/DIGITAL_IO\digital_io.h ****  *
   6:C:/Infineon/Tools/DAVE IDE/4.5.0.202105191637/eclipse/workspace/LED/Dave/Generated/DIGITAL_IO\digital_io.h ****  * NOTE:
   7:C:/Infineon/Tools/DAVE IDE/4.5.0.202105191637/eclipse/workspace/LED/Dave/Generated/DIGITAL_IO\digital_io.h ****  * This file is generated by DAVE. Any manual modification done to this file will be lost when the 
   8:C:/Infineon/Tools/DAVE IDE/4.5.0.202105191637/eclipse/workspace/LED/Dave/Generated/DIGITAL_IO\digital_io.h ****  *
   9:C:/Infineon/Tools/DAVE IDE/4.5.0.202105191637/eclipse/workspace/LED/Dave/Generated/DIGITAL_IO\digital_io.h ****  * @cond
  10:C:/Infineon/Tools/DAVE IDE/4.5.0.202105191637/eclipse/workspace/LED/Dave/Generated/DIGITAL_IO\digital_io.h ****  **************************************************************************************************
  11:C:/Infineon/Tools/DAVE IDE/4.5.0.202105191637/eclipse/workspace/LED/Dave/Generated/DIGITAL_IO\digital_io.h ****  * DIGITAL_IO v4.0.18 - The DIGITAL_IO APP is used to configure a port pin as digital Input/Output.
  12:C:/Infineon/Tools/DAVE IDE/4.5.0.202105191637/eclipse/workspace/LED/Dave/Generated/DIGITAL_IO\digital_io.h ****  *
  13:C:/Infineon/Tools/DAVE IDE/4.5.0.202105191637/eclipse/workspace/LED/Dave/Generated/DIGITAL_IO\digital_io.h ****  * Copyright (c) 2015-2020, Infineon Technologies AG
  14:C:/Infineon/Tools/DAVE IDE/4.5.0.202105191637/eclipse/workspace/LED/Dave/Generated/DIGITAL_IO\digital_io.h ****  * All rights reserved.
  15:C:/Infineon/Tools/DAVE IDE/4.5.0.202105191637/eclipse/workspace/LED/Dave/Generated/DIGITAL_IO\digital_io.h ****  *
  16:C:/Infineon/Tools/DAVE IDE/4.5.0.202105191637/eclipse/workspace/LED/Dave/Generated/DIGITAL_IO\digital_io.h ****  * Redistribution and use in source and binary forms, with or without modification,are permitted pr
  17:C:/Infineon/Tools/DAVE IDE/4.5.0.202105191637/eclipse/workspace/LED/Dave/Generated/DIGITAL_IO\digital_io.h ****  * following conditions are met:
  18:C:/Infineon/Tools/DAVE IDE/4.5.0.202105191637/eclipse/workspace/LED/Dave/Generated/DIGITAL_IO\digital_io.h ****  *
  19:C:/Infineon/Tools/DAVE IDE/4.5.0.202105191637/eclipse/workspace/LED/Dave/Generated/DIGITAL_IO\digital_io.h ****  *   Redistributions of source code must retain the above copyright notice, this list of conditions
  20:C:/Infineon/Tools/DAVE IDE/4.5.0.202105191637/eclipse/workspace/LED/Dave/Generated/DIGITAL_IO\digital_io.h ****  *   disclaimer.
  21:C:/Infineon/Tools/DAVE IDE/4.5.0.202105191637/eclipse/workspace/LED/Dave/Generated/DIGITAL_IO\digital_io.h ****  *
  22:C:/Infineon/Tools/DAVE IDE/4.5.0.202105191637/eclipse/workspace/LED/Dave/Generated/DIGITAL_IO\digital_io.h ****  *   Redistributions in binary form must reproduce the above copyright notice, this list of conditi
  23:C:/Infineon/Tools/DAVE IDE/4.5.0.202105191637/eclipse/workspace/LED/Dave/Generated/DIGITAL_IO\digital_io.h ****  *   following disclaimer in the documentation and/or other materials provided with the distributio
  24:C:/Infineon/Tools/DAVE IDE/4.5.0.202105191637/eclipse/workspace/LED/Dave/Generated/DIGITAL_IO\digital_io.h ****  *
  25:C:/Infineon/Tools/DAVE IDE/4.5.0.202105191637/eclipse/workspace/LED/Dave/Generated/DIGITAL_IO\digital_io.h ****  *   Neither the name of the copyright holders nor the names of its contributors may be used to end
  26:C:/Infineon/Tools/DAVE IDE/4.5.0.202105191637/eclipse/workspace/LED/Dave/Generated/DIGITAL_IO\digital_io.h ****  *   products derived from this software without specific prior written permission.
  27:C:/Infineon/Tools/DAVE IDE/4.5.0.202105191637/eclipse/workspace/LED/Dave/Generated/DIGITAL_IO\digital_io.h ****  *
  28:C:/Infineon/Tools/DAVE IDE/4.5.0.202105191637/eclipse/workspace/LED/Dave/Generated/DIGITAL_IO\digital_io.h ****  * THIS SOFTWARE IS PROVIDED BY THE COPYRIGHT HOLDERS AND CONTRIBUTORS "AS IS" AND ANY EXPRESS OR I
  29:C:/Infineon/Tools/DAVE IDE/4.5.0.202105191637/eclipse/workspace/LED/Dave/Generated/DIGITAL_IO\digital_io.h ****  * INCLUDING, BUT NOT LIMITED TO, THE IMPLIED WARRANTIES OF MERCHANTABILITY AND FITNESS FOR A PARTI
  30:C:/Infineon/Tools/DAVE IDE/4.5.0.202105191637/eclipse/workspace/LED/Dave/Generated/DIGITAL_IO\digital_io.h ****  * DISCLAIMED. IN NO EVENT SHALL THE COPYRIGHT HOLDER OR CONTRIBUTORS BE LIABLE  FOR ANY DIRECT, IN
  31:C:/Infineon/Tools/DAVE IDE/4.5.0.202105191637/eclipse/workspace/LED/Dave/Generated/DIGITAL_IO\digital_io.h ****  * SPECIAL, EXEMPLARY, OR CONSEQUENTIAL DAMAGES (INCLUDING, BUT NOT LIMITED TO, PROCUREMENT OF SUBS
  32:C:/Infineon/Tools/DAVE IDE/4.5.0.202105191637/eclipse/workspace/LED/Dave/Generated/DIGITAL_IO\digital_io.h ****  * SERVICES; LOSS OF USE, DATA, OR PROFITS; OR BUSINESS INTERRUPTION) HOWEVER CAUSED AND ON ANY THE
  33:C:/Infineon/Tools/DAVE IDE/4.5.0.202105191637/eclipse/workspace/LED/Dave/Generated/DIGITAL_IO\digital_io.h ****  * WHETHER IN CONTRACT, STRICT LIABILITY,OR TORT (INCLUDING NEGLIGENCE OR OTHERWISE) ARISING IN ANY
  34:C:/Infineon/Tools/DAVE IDE/4.5.0.202105191637/eclipse/workspace/LED/Dave/Generated/DIGITAL_IO\digital_io.h ****  * USE OF THIS SOFTWARE, EVEN IF ADVISED OF THE POSSIBILITY OF SUCH DAMAGE.
  35:C:/Infineon/Tools/DAVE IDE/4.5.0.202105191637/eclipse/workspace/LED/Dave/Generated/DIGITAL_IO\digital_io.h ****  *
  36:C:/Infineon/Tools/DAVE IDE/4.5.0.202105191637/eclipse/workspace/LED/Dave/Generated/DIGITAL_IO\digital_io.h ****  * To improve the quality of the software, users are encouraged to share modifications, enhancement
  37:C:/Infineon/Tools/DAVE IDE/4.5.0.202105191637/eclipse/workspace/LED/Dave/Generated/DIGITAL_IO\digital_io.h ****  * with Infineon Technologies AG (dave@infineon.com).
  38:C:/Infineon/Tools/DAVE IDE/4.5.0.202105191637/eclipse/workspace/LED/Dave/Generated/DIGITAL_IO\digital_io.h ****  **************************************************************************************************
  39:C:/Infineon/Tools/DAVE IDE/4.5.0.202105191637/eclipse/workspace/LED/Dave/Generated/DIGITAL_IO\digital_io.h ****  *
  40:C:/Infineon/Tools/DAVE IDE/4.5.0.202105191637/eclipse/workspace/LED/Dave/Generated/DIGITAL_IO\digital_io.h ****  * Change History
  41:C:/Infineon/Tools/DAVE IDE/4.5.0.202105191637/eclipse/workspace/LED/Dave/Generated/DIGITAL_IO\digital_io.h ****  * --------------
  42:C:/Infineon/Tools/DAVE IDE/4.5.0.202105191637/eclipse/workspace/LED/Dave/Generated/DIGITAL_IO\digital_io.h ****  *
  43:C:/Infineon/Tools/DAVE IDE/4.5.0.202105191637/eclipse/workspace/LED/Dave/Generated/DIGITAL_IO\digital_io.h ****  * 2015-02-16
  44:C:/Infineon/Tools/DAVE IDE/4.5.0.202105191637/eclipse/workspace/LED/Dave/Generated/DIGITAL_IO\digital_io.h ****  *     - Initial version
  45:C:/Infineon/Tools/DAVE IDE/4.5.0.202105191637/eclipse/workspace/LED/Dave/Generated/DIGITAL_IO\digital_io.h ****  *
  46:C:/Infineon/Tools/DAVE IDE/4.5.0.202105191637/eclipse/workspace/LED/Dave/Generated/DIGITAL_IO\digital_io.h ****  * 2015-04-22
  47:C:/Infineon/Tools/DAVE IDE/4.5.0.202105191637/eclipse/workspace/LED/Dave/Generated/DIGITAL_IO\digital_io.h ****  *     - XMC_ASSERT is added in static inline functions.<br>
  48:C:/Infineon/Tools/DAVE IDE/4.5.0.202105191637/eclipse/workspace/LED/Dave/Generated/DIGITAL_IO\digital_io.h ****  *
  49:C:/Infineon/Tools/DAVE IDE/4.5.0.202105191637/eclipse/workspace/LED/Dave/Generated/DIGITAL_IO\digital_io.h ****  * 2015-06-20
  50:C:/Infineon/Tools/DAVE IDE/4.5.0.202105191637/eclipse/workspace/LED/Dave/Generated/DIGITAL_IO\digital_io.h ****  *     - Version check added for XMCLib dependency.<br>
  51:C:/Infineon/Tools/DAVE IDE/4.5.0.202105191637/eclipse/workspace/LED/Dave/Generated/DIGITAL_IO\digital_io.h ****  *
  52:C:/Infineon/Tools/DAVE IDE/4.5.0.202105191637/eclipse/workspace/LED/Dave/Generated/DIGITAL_IO\digital_io.h ****  * 2015-12-22
  53:C:/Infineon/Tools/DAVE IDE/4.5.0.202105191637/eclipse/workspace/LED/Dave/Generated/DIGITAL_IO\digital_io.h ****  *     - Added hardware controlled IO feature.
  54:C:/Infineon/Tools/DAVE IDE/4.5.0.202105191637/eclipse/workspace/LED/Dave/Generated/DIGITAL_IO\digital_io.h ****  * 2016-07-08:
  55:C:/Infineon/Tools/DAVE IDE/4.5.0.202105191637/eclipse/workspace/LED/Dave/Generated/DIGITAL_IO\digital_io.h ****  *     - Fixed incorrect case for an included header.<br>
  56:C:/Infineon/Tools/DAVE IDE/4.5.0.202105191637/eclipse/workspace/LED/Dave/Generated/DIGITAL_IO\digital_io.h ****  * 2021-01-08:
  57:C:/Infineon/Tools/DAVE IDE/4.5.0.202105191637/eclipse/workspace/LED/Dave/Generated/DIGITAL_IO\digital_io.h ****  *     - Modified check for minimum XMCLib version
  58:C:/Infineon/Tools/DAVE IDE/4.5.0.202105191637/eclipse/workspace/LED/Dave/Generated/DIGITAL_IO\digital_io.h ****  *
  59:C:/Infineon/Tools/DAVE IDE/4.5.0.202105191637/eclipse/workspace/LED/Dave/Generated/DIGITAL_IO\digital_io.h ****  * @endcond
  60:C:/Infineon/Tools/DAVE IDE/4.5.0.202105191637/eclipse/workspace/LED/Dave/Generated/DIGITAL_IO\digital_io.h ****  *
  61:C:/Infineon/Tools/DAVE IDE/4.5.0.202105191637/eclipse/workspace/LED/Dave/Generated/DIGITAL_IO\digital_io.h ****  */
  62:C:/Infineon/Tools/DAVE IDE/4.5.0.202105191637/eclipse/workspace/LED/Dave/Generated/DIGITAL_IO\digital_io.h **** 
  63:C:/Infineon/Tools/DAVE IDE/4.5.0.202105191637/eclipse/workspace/LED/Dave/Generated/DIGITAL_IO\digital_io.h **** /**************************************************************************************************
  64:C:/Infineon/Tools/DAVE IDE/4.5.0.202105191637/eclipse/workspace/LED/Dave/Generated/DIGITAL_IO\digital_io.h ****  * HEADER FILES
  65:C:/Infineon/Tools/DAVE IDE/4.5.0.202105191637/eclipse/workspace/LED/Dave/Generated/DIGITAL_IO\digital_io.h ****  **************************************************************************************************
  66:C:/Infineon/Tools/DAVE IDE/4.5.0.202105191637/eclipse/workspace/LED/Dave/Generated/DIGITAL_IO\digital_io.h **** 
  67:C:/Infineon/Tools/DAVE IDE/4.5.0.202105191637/eclipse/workspace/LED/Dave/Generated/DIGITAL_IO\digital_io.h **** #ifndef DIGITAL_IO_H
  68:C:/Infineon/Tools/DAVE IDE/4.5.0.202105191637/eclipse/workspace/LED/Dave/Generated/DIGITAL_IO\digital_io.h **** #define DIGITAL_IO_H
  69:C:/Infineon/Tools/DAVE IDE/4.5.0.202105191637/eclipse/workspace/LED/Dave/Generated/DIGITAL_IO\digital_io.h **** 
  70:C:/Infineon/Tools/DAVE IDE/4.5.0.202105191637/eclipse/workspace/LED/Dave/Generated/DIGITAL_IO\digital_io.h **** #include "xmc_gpio.h"
  71:C:/Infineon/Tools/DAVE IDE/4.5.0.202105191637/eclipse/workspace/LED/Dave/Generated/DIGITAL_IO\digital_io.h **** #include "DAVE_Common.h"
  72:C:/Infineon/Tools/DAVE IDE/4.5.0.202105191637/eclipse/workspace/LED/Dave/Generated/DIGITAL_IO\digital_io.h **** #include "digital_io_conf.h"
  73:C:/Infineon/Tools/DAVE IDE/4.5.0.202105191637/eclipse/workspace/LED/Dave/Generated/DIGITAL_IO\digital_io.h **** 
  74:C:/Infineon/Tools/DAVE IDE/4.5.0.202105191637/eclipse/workspace/LED/Dave/Generated/DIGITAL_IO\digital_io.h **** /**************************************************************************************************
  75:C:/Infineon/Tools/DAVE IDE/4.5.0.202105191637/eclipse/workspace/LED/Dave/Generated/DIGITAL_IO\digital_io.h ****  * MACROS
  76:C:/Infineon/Tools/DAVE IDE/4.5.0.202105191637/eclipse/workspace/LED/Dave/Generated/DIGITAL_IO\digital_io.h ****  **************************************************************************************************
  77:C:/Infineon/Tools/DAVE IDE/4.5.0.202105191637/eclipse/workspace/LED/Dave/Generated/DIGITAL_IO\digital_io.h **** #define DIGITAL_IO_XMC_LIB_MAJOR_VERSION 2
  78:C:/Infineon/Tools/DAVE IDE/4.5.0.202105191637/eclipse/workspace/LED/Dave/Generated/DIGITAL_IO\digital_io.h **** #define DIGITAL_IO_XMC_LIB_MINOR_VERSION 0
  79:C:/Infineon/Tools/DAVE IDE/4.5.0.202105191637/eclipse/workspace/LED/Dave/Generated/DIGITAL_IO\digital_io.h **** #define DIGITAL_IO_XMC_LIB_PATCH_VERSION 0
  80:C:/Infineon/Tools/DAVE IDE/4.5.0.202105191637/eclipse/workspace/LED/Dave/Generated/DIGITAL_IO\digital_io.h **** 
  81:C:/Infineon/Tools/DAVE IDE/4.5.0.202105191637/eclipse/workspace/LED/Dave/Generated/DIGITAL_IO\digital_io.h **** #if !((XMC_LIB_MAJOR_VERSION > DIGITAL_IO_XMC_LIB_MAJOR_VERSION) ||\
  82:C:/Infineon/Tools/DAVE IDE/4.5.0.202105191637/eclipse/workspace/LED/Dave/Generated/DIGITAL_IO\digital_io.h ****       ((XMC_LIB_MAJOR_VERSION == DIGITAL_IO_XMC_LIB_MAJOR_VERSION) && (XMC_LIB_MINOR_VERSION > DIGI
  83:C:/Infineon/Tools/DAVE IDE/4.5.0.202105191637/eclipse/workspace/LED/Dave/Generated/DIGITAL_IO\digital_io.h ****       ((XMC_LIB_MAJOR_VERSION == DIGITAL_IO_XMC_LIB_MAJOR_VERSION) && (XMC_LIB_MINOR_VERSION == DIG
  84:C:/Infineon/Tools/DAVE IDE/4.5.0.202105191637/eclipse/workspace/LED/Dave/Generated/DIGITAL_IO\digital_io.h **** #error "DIGITAL_IO requires XMC Peripheral Library v2.0.0 or higher"
  85:C:/Infineon/Tools/DAVE IDE/4.5.0.202105191637/eclipse/workspace/LED/Dave/Generated/DIGITAL_IO\digital_io.h **** #endif
  86:C:/Infineon/Tools/DAVE IDE/4.5.0.202105191637/eclipse/workspace/LED/Dave/Generated/DIGITAL_IO\digital_io.h **** 
  87:C:/Infineon/Tools/DAVE IDE/4.5.0.202105191637/eclipse/workspace/LED/Dave/Generated/DIGITAL_IO\digital_io.h ****  /*************************************************************************************************
  88:C:/Infineon/Tools/DAVE IDE/4.5.0.202105191637/eclipse/workspace/LED/Dave/Generated/DIGITAL_IO\digital_io.h ****  * ENUMS
  89:C:/Infineon/Tools/DAVE IDE/4.5.0.202105191637/eclipse/workspace/LED/Dave/Generated/DIGITAL_IO\digital_io.h ****  **************************************************************************************************
  90:C:/Infineon/Tools/DAVE IDE/4.5.0.202105191637/eclipse/workspace/LED/Dave/Generated/DIGITAL_IO\digital_io.h **** 
  91:C:/Infineon/Tools/DAVE IDE/4.5.0.202105191637/eclipse/workspace/LED/Dave/Generated/DIGITAL_IO\digital_io.h **** /**
  92:C:/Infineon/Tools/DAVE IDE/4.5.0.202105191637/eclipse/workspace/LED/Dave/Generated/DIGITAL_IO\digital_io.h **** * @ingroup DIGITAL_IO_enumerations
  93:C:/Infineon/Tools/DAVE IDE/4.5.0.202105191637/eclipse/workspace/LED/Dave/Generated/DIGITAL_IO\digital_io.h **** * @{
  94:C:/Infineon/Tools/DAVE IDE/4.5.0.202105191637/eclipse/workspace/LED/Dave/Generated/DIGITAL_IO\digital_io.h **** */
  95:C:/Infineon/Tools/DAVE IDE/4.5.0.202105191637/eclipse/workspace/LED/Dave/Generated/DIGITAL_IO\digital_io.h **** 
  96:C:/Infineon/Tools/DAVE IDE/4.5.0.202105191637/eclipse/workspace/LED/Dave/Generated/DIGITAL_IO\digital_io.h **** /**
  97:C:/Infineon/Tools/DAVE IDE/4.5.0.202105191637/eclipse/workspace/LED/Dave/Generated/DIGITAL_IO\digital_io.h **** * @brief Initialization status of DIGITAL_IO APP.
  98:C:/Infineon/Tools/DAVE IDE/4.5.0.202105191637/eclipse/workspace/LED/Dave/Generated/DIGITAL_IO\digital_io.h **** */
  99:C:/Infineon/Tools/DAVE IDE/4.5.0.202105191637/eclipse/workspace/LED/Dave/Generated/DIGITAL_IO\digital_io.h **** typedef enum DIGITAL_IO_STATUS
 100:C:/Infineon/Tools/DAVE IDE/4.5.0.202105191637/eclipse/workspace/LED/Dave/Generated/DIGITAL_IO\digital_io.h **** {
 101:C:/Infineon/Tools/DAVE IDE/4.5.0.202105191637/eclipse/workspace/LED/Dave/Generated/DIGITAL_IO\digital_io.h ****   DIGITAL_IO_STATUS_OK = 0U,/**< 0=Status OK */
 102:C:/Infineon/Tools/DAVE IDE/4.5.0.202105191637/eclipse/workspace/LED/Dave/Generated/DIGITAL_IO\digital_io.h ****   DIGITAL_IO_STATUS_FAILURE = 1U/**< 1=Status Failed */
 103:C:/Infineon/Tools/DAVE IDE/4.5.0.202105191637/eclipse/workspace/LED/Dave/Generated/DIGITAL_IO\digital_io.h **** } DIGITAL_IO_STATUS_t;
 104:C:/Infineon/Tools/DAVE IDE/4.5.0.202105191637/eclipse/workspace/LED/Dave/Generated/DIGITAL_IO\digital_io.h **** 
 105:C:/Infineon/Tools/DAVE IDE/4.5.0.202105191637/eclipse/workspace/LED/Dave/Generated/DIGITAL_IO\digital_io.h **** /**
 106:C:/Infineon/Tools/DAVE IDE/4.5.0.202105191637/eclipse/workspace/LED/Dave/Generated/DIGITAL_IO\digital_io.h **** * @}
 107:C:/Infineon/Tools/DAVE IDE/4.5.0.202105191637/eclipse/workspace/LED/Dave/Generated/DIGITAL_IO\digital_io.h **** */
 108:C:/Infineon/Tools/DAVE IDE/4.5.0.202105191637/eclipse/workspace/LED/Dave/Generated/DIGITAL_IO\digital_io.h **** 
 109:C:/Infineon/Tools/DAVE IDE/4.5.0.202105191637/eclipse/workspace/LED/Dave/Generated/DIGITAL_IO\digital_io.h **** /**************************************************************************************************
 110:C:/Infineon/Tools/DAVE IDE/4.5.0.202105191637/eclipse/workspace/LED/Dave/Generated/DIGITAL_IO\digital_io.h ****  * DATA STRUCTURES
 111:C:/Infineon/Tools/DAVE IDE/4.5.0.202105191637/eclipse/workspace/LED/Dave/Generated/DIGITAL_IO\digital_io.h ****  **************************************************************************************************
 112:C:/Infineon/Tools/DAVE IDE/4.5.0.202105191637/eclipse/workspace/LED/Dave/Generated/DIGITAL_IO\digital_io.h **** /**
 113:C:/Infineon/Tools/DAVE IDE/4.5.0.202105191637/eclipse/workspace/LED/Dave/Generated/DIGITAL_IO\digital_io.h **** * @ingroup DIGITAL_IO_datastructures
 114:C:/Infineon/Tools/DAVE IDE/4.5.0.202105191637/eclipse/workspace/LED/Dave/Generated/DIGITAL_IO\digital_io.h **** * @{
 115:C:/Infineon/Tools/DAVE IDE/4.5.0.202105191637/eclipse/workspace/LED/Dave/Generated/DIGITAL_IO\digital_io.h **** */
 116:C:/Infineon/Tools/DAVE IDE/4.5.0.202105191637/eclipse/workspace/LED/Dave/Generated/DIGITAL_IO\digital_io.h **** 
 117:C:/Infineon/Tools/DAVE IDE/4.5.0.202105191637/eclipse/workspace/LED/Dave/Generated/DIGITAL_IO\digital_io.h **** /**
 118:C:/Infineon/Tools/DAVE IDE/4.5.0.202105191637/eclipse/workspace/LED/Dave/Generated/DIGITAL_IO\digital_io.h **** * @brief Initialization data structure of DIGITAL_IO APP
 119:C:/Infineon/Tools/DAVE IDE/4.5.0.202105191637/eclipse/workspace/LED/Dave/Generated/DIGITAL_IO\digital_io.h **** */
 120:C:/Infineon/Tools/DAVE IDE/4.5.0.202105191637/eclipse/workspace/LED/Dave/Generated/DIGITAL_IO\digital_io.h **** typedef struct DIGITAL_IO
 121:C:/Infineon/Tools/DAVE IDE/4.5.0.202105191637/eclipse/workspace/LED/Dave/Generated/DIGITAL_IO\digital_io.h **** {
 122:C:/Infineon/Tools/DAVE IDE/4.5.0.202105191637/eclipse/workspace/LED/Dave/Generated/DIGITAL_IO\digital_io.h ****   XMC_GPIO_PORT_t *const gpio_port;             /**< port number */
 123:C:/Infineon/Tools/DAVE IDE/4.5.0.202105191637/eclipse/workspace/LED/Dave/Generated/DIGITAL_IO\digital_io.h ****   const XMC_GPIO_CONFIG_t gpio_config;          /**< mode, initial output level and pad driver stre
 124:C:/Infineon/Tools/DAVE IDE/4.5.0.202105191637/eclipse/workspace/LED/Dave/Generated/DIGITAL_IO\digital_io.h ****   const uint8_t gpio_pin;                       /**< pin number */
 125:C:/Infineon/Tools/DAVE IDE/4.5.0.202105191637/eclipse/workspace/LED/Dave/Generated/DIGITAL_IO\digital_io.h ****   const XMC_GPIO_HWCTRL_t hwctrl;               /**< Hardware port control */
 126:C:/Infineon/Tools/DAVE IDE/4.5.0.202105191637/eclipse/workspace/LED/Dave/Generated/DIGITAL_IO\digital_io.h **** } DIGITAL_IO_t;
 127:C:/Infineon/Tools/DAVE IDE/4.5.0.202105191637/eclipse/workspace/LED/Dave/Generated/DIGITAL_IO\digital_io.h **** 
 128:C:/Infineon/Tools/DAVE IDE/4.5.0.202105191637/eclipse/workspace/LED/Dave/Generated/DIGITAL_IO\digital_io.h **** 
 129:C:/Infineon/Tools/DAVE IDE/4.5.0.202105191637/eclipse/workspace/LED/Dave/Generated/DIGITAL_IO\digital_io.h **** /**
 130:C:/Infineon/Tools/DAVE IDE/4.5.0.202105191637/eclipse/workspace/LED/Dave/Generated/DIGITAL_IO\digital_io.h **** * @}
 131:C:/Infineon/Tools/DAVE IDE/4.5.0.202105191637/eclipse/workspace/LED/Dave/Generated/DIGITAL_IO\digital_io.h **** */
 132:C:/Infineon/Tools/DAVE IDE/4.5.0.202105191637/eclipse/workspace/LED/Dave/Generated/DIGITAL_IO\digital_io.h **** 
 133:C:/Infineon/Tools/DAVE IDE/4.5.0.202105191637/eclipse/workspace/LED/Dave/Generated/DIGITAL_IO\digital_io.h **** 
 134:C:/Infineon/Tools/DAVE IDE/4.5.0.202105191637/eclipse/workspace/LED/Dave/Generated/DIGITAL_IO\digital_io.h **** /**************************************************************************************************
 135:C:/Infineon/Tools/DAVE IDE/4.5.0.202105191637/eclipse/workspace/LED/Dave/Generated/DIGITAL_IO\digital_io.h ****  * API Prototypes
 136:C:/Infineon/Tools/DAVE IDE/4.5.0.202105191637/eclipse/workspace/LED/Dave/Generated/DIGITAL_IO\digital_io.h ****  **************************************************************************************************
 137:C:/Infineon/Tools/DAVE IDE/4.5.0.202105191637/eclipse/workspace/LED/Dave/Generated/DIGITAL_IO\digital_io.h **** 
 138:C:/Infineon/Tools/DAVE IDE/4.5.0.202105191637/eclipse/workspace/LED/Dave/Generated/DIGITAL_IO\digital_io.h **** 
 139:C:/Infineon/Tools/DAVE IDE/4.5.0.202105191637/eclipse/workspace/LED/Dave/Generated/DIGITAL_IO\digital_io.h **** #ifdef __cplusplus
 140:C:/Infineon/Tools/DAVE IDE/4.5.0.202105191637/eclipse/workspace/LED/Dave/Generated/DIGITAL_IO\digital_io.h **** extern "C" {
 141:C:/Infineon/Tools/DAVE IDE/4.5.0.202105191637/eclipse/workspace/LED/Dave/Generated/DIGITAL_IO\digital_io.h **** #endif
 142:C:/Infineon/Tools/DAVE IDE/4.5.0.202105191637/eclipse/workspace/LED/Dave/Generated/DIGITAL_IO\digital_io.h **** 
 143:C:/Infineon/Tools/DAVE IDE/4.5.0.202105191637/eclipse/workspace/LED/Dave/Generated/DIGITAL_IO\digital_io.h **** /**
 144:C:/Infineon/Tools/DAVE IDE/4.5.0.202105191637/eclipse/workspace/LED/Dave/Generated/DIGITAL_IO\digital_io.h **** * @ingroup DIGITAL_IO_apidoc
 145:C:/Infineon/Tools/DAVE IDE/4.5.0.202105191637/eclipse/workspace/LED/Dave/Generated/DIGITAL_IO\digital_io.h **** * @{
 146:C:/Infineon/Tools/DAVE IDE/4.5.0.202105191637/eclipse/workspace/LED/Dave/Generated/DIGITAL_IO\digital_io.h **** */
 147:C:/Infineon/Tools/DAVE IDE/4.5.0.202105191637/eclipse/workspace/LED/Dave/Generated/DIGITAL_IO\digital_io.h **** 
 148:C:/Infineon/Tools/DAVE IDE/4.5.0.202105191637/eclipse/workspace/LED/Dave/Generated/DIGITAL_IO\digital_io.h **** 
 149:C:/Infineon/Tools/DAVE IDE/4.5.0.202105191637/eclipse/workspace/LED/Dave/Generated/DIGITAL_IO\digital_io.h **** 
 150:C:/Infineon/Tools/DAVE IDE/4.5.0.202105191637/eclipse/workspace/LED/Dave/Generated/DIGITAL_IO\digital_io.h **** /**
 151:C:/Infineon/Tools/DAVE IDE/4.5.0.202105191637/eclipse/workspace/LED/Dave/Generated/DIGITAL_IO\digital_io.h **** * @brief Get DIGITAL_IO APP version
 152:C:/Infineon/Tools/DAVE IDE/4.5.0.202105191637/eclipse/workspace/LED/Dave/Generated/DIGITAL_IO\digital_io.h **** * @return DAVE_APP_VERSION_t APP version information (major, minor and patch number)
 153:C:/Infineon/Tools/DAVE IDE/4.5.0.202105191637/eclipse/workspace/LED/Dave/Generated/DIGITAL_IO\digital_io.h **** *
 154:C:/Infineon/Tools/DAVE IDE/4.5.0.202105191637/eclipse/workspace/LED/Dave/Generated/DIGITAL_IO\digital_io.h **** * \par<b>Description: </b><br>
 155:C:/Infineon/Tools/DAVE IDE/4.5.0.202105191637/eclipse/workspace/LED/Dave/Generated/DIGITAL_IO\digital_io.h **** * The function can be used to check application software compatibility with a
 156:C:/Infineon/Tools/DAVE IDE/4.5.0.202105191637/eclipse/workspace/LED/Dave/Generated/DIGITAL_IO\digital_io.h **** * specific version of the APP.
 157:C:/Infineon/Tools/DAVE IDE/4.5.0.202105191637/eclipse/workspace/LED/Dave/Generated/DIGITAL_IO\digital_io.h **** *
 158:C:/Infineon/Tools/DAVE IDE/4.5.0.202105191637/eclipse/workspace/LED/Dave/Generated/DIGITAL_IO\digital_io.h **** * Example Usage:
 159:C:/Infineon/Tools/DAVE IDE/4.5.0.202105191637/eclipse/workspace/LED/Dave/Generated/DIGITAL_IO\digital_io.h **** *
 160:C:/Infineon/Tools/DAVE IDE/4.5.0.202105191637/eclipse/workspace/LED/Dave/Generated/DIGITAL_IO\digital_io.h **** * @code
 161:C:/Infineon/Tools/DAVE IDE/4.5.0.202105191637/eclipse/workspace/LED/Dave/Generated/DIGITAL_IO\digital_io.h **** * #include "DAVE.h"
 162:C:/Infineon/Tools/DAVE IDE/4.5.0.202105191637/eclipse/workspace/LED/Dave/Generated/DIGITAL_IO\digital_io.h **** *
 163:C:/Infineon/Tools/DAVE IDE/4.5.0.202105191637/eclipse/workspace/LED/Dave/Generated/DIGITAL_IO\digital_io.h **** * int main(void)
 164:C:/Infineon/Tools/DAVE IDE/4.5.0.202105191637/eclipse/workspace/LED/Dave/Generated/DIGITAL_IO\digital_io.h **** * {
 165:C:/Infineon/Tools/DAVE IDE/4.5.0.202105191637/eclipse/workspace/LED/Dave/Generated/DIGITAL_IO\digital_io.h **** *   DAVE_STATUS_t init_status;
 166:C:/Infineon/Tools/DAVE IDE/4.5.0.202105191637/eclipse/workspace/LED/Dave/Generated/DIGITAL_IO\digital_io.h **** *   DAVE_APP_VERSION_t version;
 167:C:/Infineon/Tools/DAVE IDE/4.5.0.202105191637/eclipse/workspace/LED/Dave/Generated/DIGITAL_IO\digital_io.h **** *
 168:C:/Infineon/Tools/DAVE IDE/4.5.0.202105191637/eclipse/workspace/LED/Dave/Generated/DIGITAL_IO\digital_io.h **** *   // Initialize DIGITAL_IO APP:
 169:C:/Infineon/Tools/DAVE IDE/4.5.0.202105191637/eclipse/workspace/LED/Dave/Generated/DIGITAL_IO\digital_io.h **** *   // DIGITAL_IO_Init() is called from within DAVE_Init().
 170:C:/Infineon/Tools/DAVE IDE/4.5.0.202105191637/eclipse/workspace/LED/Dave/Generated/DIGITAL_IO\digital_io.h **** *   init_status = DAVE_Init();
 171:C:/Infineon/Tools/DAVE IDE/4.5.0.202105191637/eclipse/workspace/LED/Dave/Generated/DIGITAL_IO\digital_io.h **** *   if(init_status == DAVE_STATUS_SUCCESS)
 172:C:/Infineon/Tools/DAVE IDE/4.5.0.202105191637/eclipse/workspace/LED/Dave/Generated/DIGITAL_IO\digital_io.h **** *   {
 173:C:/Infineon/Tools/DAVE IDE/4.5.0.202105191637/eclipse/workspace/LED/Dave/Generated/DIGITAL_IO\digital_io.h **** *     version = DIGITAL_IO_GetAppVersion();
 174:C:/Infineon/Tools/DAVE IDE/4.5.0.202105191637/eclipse/workspace/LED/Dave/Generated/DIGITAL_IO\digital_io.h **** *     if (version.major != 4U) {
 175:C:/Infineon/Tools/DAVE IDE/4.5.0.202105191637/eclipse/workspace/LED/Dave/Generated/DIGITAL_IO\digital_io.h **** *     // Probably, not the right version.
 176:C:/Infineon/Tools/DAVE IDE/4.5.0.202105191637/eclipse/workspace/LED/Dave/Generated/DIGITAL_IO\digital_io.h **** *     }
 177:C:/Infineon/Tools/DAVE IDE/4.5.0.202105191637/eclipse/workspace/LED/Dave/Generated/DIGITAL_IO\digital_io.h **** *   }
 178:C:/Infineon/Tools/DAVE IDE/4.5.0.202105191637/eclipse/workspace/LED/Dave/Generated/DIGITAL_IO\digital_io.h **** *
 179:C:/Infineon/Tools/DAVE IDE/4.5.0.202105191637/eclipse/workspace/LED/Dave/Generated/DIGITAL_IO\digital_io.h **** *     // More code here
 180:C:/Infineon/Tools/DAVE IDE/4.5.0.202105191637/eclipse/workspace/LED/Dave/Generated/DIGITAL_IO\digital_io.h **** *     while(1) {
 181:C:/Infineon/Tools/DAVE IDE/4.5.0.202105191637/eclipse/workspace/LED/Dave/Generated/DIGITAL_IO\digital_io.h **** *
 182:C:/Infineon/Tools/DAVE IDE/4.5.0.202105191637/eclipse/workspace/LED/Dave/Generated/DIGITAL_IO\digital_io.h **** *     }
 183:C:/Infineon/Tools/DAVE IDE/4.5.0.202105191637/eclipse/workspace/LED/Dave/Generated/DIGITAL_IO\digital_io.h **** *     return (1);
 184:C:/Infineon/Tools/DAVE IDE/4.5.0.202105191637/eclipse/workspace/LED/Dave/Generated/DIGITAL_IO\digital_io.h **** *  }
 185:C:/Infineon/Tools/DAVE IDE/4.5.0.202105191637/eclipse/workspace/LED/Dave/Generated/DIGITAL_IO\digital_io.h **** * @endcode<BR>
 186:C:/Infineon/Tools/DAVE IDE/4.5.0.202105191637/eclipse/workspace/LED/Dave/Generated/DIGITAL_IO\digital_io.h **** */
 187:C:/Infineon/Tools/DAVE IDE/4.5.0.202105191637/eclipse/workspace/LED/Dave/Generated/DIGITAL_IO\digital_io.h **** 
 188:C:/Infineon/Tools/DAVE IDE/4.5.0.202105191637/eclipse/workspace/LED/Dave/Generated/DIGITAL_IO\digital_io.h **** DAVE_APP_VERSION_t DIGITAL_IO_GetAppVersion(void);
 189:C:/Infineon/Tools/DAVE IDE/4.5.0.202105191637/eclipse/workspace/LED/Dave/Generated/DIGITAL_IO\digital_io.h **** 
 190:C:/Infineon/Tools/DAVE IDE/4.5.0.202105191637/eclipse/workspace/LED/Dave/Generated/DIGITAL_IO\digital_io.h **** /**
 191:C:/Infineon/Tools/DAVE IDE/4.5.0.202105191637/eclipse/workspace/LED/Dave/Generated/DIGITAL_IO\digital_io.h **** *
 192:C:/Infineon/Tools/DAVE IDE/4.5.0.202105191637/eclipse/workspace/LED/Dave/Generated/DIGITAL_IO\digital_io.h **** * @brief Function to initialize the port pin as per UI settings.
 193:C:/Infineon/Tools/DAVE IDE/4.5.0.202105191637/eclipse/workspace/LED/Dave/Generated/DIGITAL_IO\digital_io.h **** * @param handler Pointer pointing to APP data structure. Refer @ref DIGITAL_IO_t for details.
 194:C:/Infineon/Tools/DAVE IDE/4.5.0.202105191637/eclipse/workspace/LED/Dave/Generated/DIGITAL_IO\digital_io.h **** * @return DIGITAL_IO_STATUS_t DIGITAL_IO APP status. Refer @ref DIGITAL_IO_STATUS_t structure for d
 195:C:/Infineon/Tools/DAVE IDE/4.5.0.202105191637/eclipse/workspace/LED/Dave/Generated/DIGITAL_IO\digital_io.h **** *
 196:C:/Infineon/Tools/DAVE IDE/4.5.0.202105191637/eclipse/workspace/LED/Dave/Generated/DIGITAL_IO\digital_io.h **** * \par<b>Description:</b><br>
 197:C:/Infineon/Tools/DAVE IDE/4.5.0.202105191637/eclipse/workspace/LED/Dave/Generated/DIGITAL_IO\digital_io.h **** * This function initializes GPIO port registers IOCR,PDISC,OMR,PDR/PHCR to configure pin direction,
 198:C:/Infineon/Tools/DAVE IDE/4.5.0.202105191637/eclipse/workspace/LED/Dave/Generated/DIGITAL_IO\digital_io.h **** * and pad driver strength/hysteresis.
 199:C:/Infineon/Tools/DAVE IDE/4.5.0.202105191637/eclipse/workspace/LED/Dave/Generated/DIGITAL_IO\digital_io.h **** *
 200:C:/Infineon/Tools/DAVE IDE/4.5.0.202105191637/eclipse/workspace/LED/Dave/Generated/DIGITAL_IO\digital_io.h **** * \par<b>Related APIs:</b><BR>
 201:C:/Infineon/Tools/DAVE IDE/4.5.0.202105191637/eclipse/workspace/LED/Dave/Generated/DIGITAL_IO\digital_io.h **** * None
 202:C:/Infineon/Tools/DAVE IDE/4.5.0.202105191637/eclipse/workspace/LED/Dave/Generated/DIGITAL_IO\digital_io.h **** *
 203:C:/Infineon/Tools/DAVE IDE/4.5.0.202105191637/eclipse/workspace/LED/Dave/Generated/DIGITAL_IO\digital_io.h **** * Example Usage:
 204:C:/Infineon/Tools/DAVE IDE/4.5.0.202105191637/eclipse/workspace/LED/Dave/Generated/DIGITAL_IO\digital_io.h **** * @code
 205:C:/Infineon/Tools/DAVE IDE/4.5.0.202105191637/eclipse/workspace/LED/Dave/Generated/DIGITAL_IO\digital_io.h **** * #include "DAVE.h" //Declarations from DAVE Code Generation (includes SFR declaration)
 206:C:/Infineon/Tools/DAVE IDE/4.5.0.202105191637/eclipse/workspace/LED/Dave/Generated/DIGITAL_IO\digital_io.h **** *
 207:C:/Infineon/Tools/DAVE IDE/4.5.0.202105191637/eclipse/workspace/LED/Dave/Generated/DIGITAL_IO\digital_io.h **** * int main(void)
 208:C:/Infineon/Tools/DAVE IDE/4.5.0.202105191637/eclipse/workspace/LED/Dave/Generated/DIGITAL_IO\digital_io.h **** * {
 209:C:/Infineon/Tools/DAVE IDE/4.5.0.202105191637/eclipse/workspace/LED/Dave/Generated/DIGITAL_IO\digital_io.h **** *   DAVE_STATUS_t status;
 210:C:/Infineon/Tools/DAVE IDE/4.5.0.202105191637/eclipse/workspace/LED/Dave/Generated/DIGITAL_IO\digital_io.h **** *   status = DAVE_Init();  //(DAVE_STATUS_t)DIGITAL_IO_Init(&DIGITAL_IO_0) is called within DAVE_In
 211:C:/Infineon/Tools/DAVE IDE/4.5.0.202105191637/eclipse/workspace/LED/Dave/Generated/DIGITAL_IO\digital_io.h **** *   if(status == DAVE_STATUS_SUCCESS)
 212:C:/Infineon/Tools/DAVE IDE/4.5.0.202105191637/eclipse/workspace/LED/Dave/Generated/DIGITAL_IO\digital_io.h **** *   {
 213:C:/Infineon/Tools/DAVE IDE/4.5.0.202105191637/eclipse/workspace/LED/Dave/Generated/DIGITAL_IO\digital_io.h **** *     XMC_DEBUG("DAVE Apps initialization success\n");
 214:C:/Infineon/Tools/DAVE IDE/4.5.0.202105191637/eclipse/workspace/LED/Dave/Generated/DIGITAL_IO\digital_io.h **** *   }
 215:C:/Infineon/Tools/DAVE IDE/4.5.0.202105191637/eclipse/workspace/LED/Dave/Generated/DIGITAL_IO\digital_io.h **** *   else
 216:C:/Infineon/Tools/DAVE IDE/4.5.0.202105191637/eclipse/workspace/LED/Dave/Generated/DIGITAL_IO\digital_io.h **** *   {
 217:C:/Infineon/Tools/DAVE IDE/4.5.0.202105191637/eclipse/workspace/LED/Dave/Generated/DIGITAL_IO\digital_io.h **** *     XMC_DEBUG(("DAVE Apps initialization failed with status %d\n", status));
 218:C:/Infineon/Tools/DAVE IDE/4.5.0.202105191637/eclipse/workspace/LED/Dave/Generated/DIGITAL_IO\digital_io.h **** *     while(1U)
 219:C:/Infineon/Tools/DAVE IDE/4.5.0.202105191637/eclipse/workspace/LED/Dave/Generated/DIGITAL_IO\digital_io.h **** *     {
 220:C:/Infineon/Tools/DAVE IDE/4.5.0.202105191637/eclipse/workspace/LED/Dave/Generated/DIGITAL_IO\digital_io.h **** *     }
 221:C:/Infineon/Tools/DAVE IDE/4.5.0.202105191637/eclipse/workspace/LED/Dave/Generated/DIGITAL_IO\digital_io.h **** *   }
 222:C:/Infineon/Tools/DAVE IDE/4.5.0.202105191637/eclipse/workspace/LED/Dave/Generated/DIGITAL_IO\digital_io.h **** *   //Placeholder for user application code. The while loop below can be replaced with user applica
 223:C:/Infineon/Tools/DAVE IDE/4.5.0.202105191637/eclipse/workspace/LED/Dave/Generated/DIGITAL_IO\digital_io.h **** *   while(1U)
 224:C:/Infineon/Tools/DAVE IDE/4.5.0.202105191637/eclipse/workspace/LED/Dave/Generated/DIGITAL_IO\digital_io.h **** *   {
 225:C:/Infineon/Tools/DAVE IDE/4.5.0.202105191637/eclipse/workspace/LED/Dave/Generated/DIGITAL_IO\digital_io.h **** *   }
 226:C:/Infineon/Tools/DAVE IDE/4.5.0.202105191637/eclipse/workspace/LED/Dave/Generated/DIGITAL_IO\digital_io.h **** *   return 1U;
 227:C:/Infineon/Tools/DAVE IDE/4.5.0.202105191637/eclipse/workspace/LED/Dave/Generated/DIGITAL_IO\digital_io.h **** *  }
 228:C:/Infineon/Tools/DAVE IDE/4.5.0.202105191637/eclipse/workspace/LED/Dave/Generated/DIGITAL_IO\digital_io.h **** *  @endcode
 229:C:/Infineon/Tools/DAVE IDE/4.5.0.202105191637/eclipse/workspace/LED/Dave/Generated/DIGITAL_IO\digital_io.h **** */
 230:C:/Infineon/Tools/DAVE IDE/4.5.0.202105191637/eclipse/workspace/LED/Dave/Generated/DIGITAL_IO\digital_io.h **** 
 231:C:/Infineon/Tools/DAVE IDE/4.5.0.202105191637/eclipse/workspace/LED/Dave/Generated/DIGITAL_IO\digital_io.h **** DIGITAL_IO_STATUS_t DIGITAL_IO_Init(const DIGITAL_IO_t *const handler);
 232:C:/Infineon/Tools/DAVE IDE/4.5.0.202105191637/eclipse/workspace/LED/Dave/Generated/DIGITAL_IO\digital_io.h **** 
 233:C:/Infineon/Tools/DAVE IDE/4.5.0.202105191637/eclipse/workspace/LED/Dave/Generated/DIGITAL_IO\digital_io.h **** /**
 234:C:/Infineon/Tools/DAVE IDE/4.5.0.202105191637/eclipse/workspace/LED/Dave/Generated/DIGITAL_IO\digital_io.h **** *
 235:C:/Infineon/Tools/DAVE IDE/4.5.0.202105191637/eclipse/workspace/LED/Dave/Generated/DIGITAL_IO\digital_io.h **** * @brief Function to set port pin high.
 236:C:/Infineon/Tools/DAVE IDE/4.5.0.202105191637/eclipse/workspace/LED/Dave/Generated/DIGITAL_IO\digital_io.h **** * @param handler Pointer pointing to APP data structure. Refer @ref DIGITAL_IO_t for details.
 237:C:/Infineon/Tools/DAVE IDE/4.5.0.202105191637/eclipse/workspace/LED/Dave/Generated/DIGITAL_IO\digital_io.h **** * @return None
 238:C:/Infineon/Tools/DAVE IDE/4.5.0.202105191637/eclipse/workspace/LED/Dave/Generated/DIGITAL_IO\digital_io.h **** *
 239:C:/Infineon/Tools/DAVE IDE/4.5.0.202105191637/eclipse/workspace/LED/Dave/Generated/DIGITAL_IO\digital_io.h **** * \par<b>Description:</b><br>
 240:C:/Infineon/Tools/DAVE IDE/4.5.0.202105191637/eclipse/workspace/LED/Dave/Generated/DIGITAL_IO\digital_io.h **** * This function configures port output modification register Pn_OMR, to make port pin to high level
 241:C:/Infineon/Tools/DAVE IDE/4.5.0.202105191637/eclipse/workspace/LED/Dave/Generated/DIGITAL_IO\digital_io.h **** *
 242:C:/Infineon/Tools/DAVE IDE/4.5.0.202105191637/eclipse/workspace/LED/Dave/Generated/DIGITAL_IO\digital_io.h **** * \par<b>Related APIs:</b><BR>
 243:C:/Infineon/Tools/DAVE IDE/4.5.0.202105191637/eclipse/workspace/LED/Dave/Generated/DIGITAL_IO\digital_io.h **** *  DIGITAL_IO_SetOutputLow()
 244:C:/Infineon/Tools/DAVE IDE/4.5.0.202105191637/eclipse/workspace/LED/Dave/Generated/DIGITAL_IO\digital_io.h **** *
 245:C:/Infineon/Tools/DAVE IDE/4.5.0.202105191637/eclipse/workspace/LED/Dave/Generated/DIGITAL_IO\digital_io.h **** * Example Usage:
 246:C:/Infineon/Tools/DAVE IDE/4.5.0.202105191637/eclipse/workspace/LED/Dave/Generated/DIGITAL_IO\digital_io.h **** * @code
 247:C:/Infineon/Tools/DAVE IDE/4.5.0.202105191637/eclipse/workspace/LED/Dave/Generated/DIGITAL_IO\digital_io.h **** * #include "DAVE.h" //Declarations from DAVE Code Generation (includes SFR declaration)
 248:C:/Infineon/Tools/DAVE IDE/4.5.0.202105191637/eclipse/workspace/LED/Dave/Generated/DIGITAL_IO\digital_io.h **** *
 249:C:/Infineon/Tools/DAVE IDE/4.5.0.202105191637/eclipse/workspace/LED/Dave/Generated/DIGITAL_IO\digital_io.h **** * int main(void)
 250:C:/Infineon/Tools/DAVE IDE/4.5.0.202105191637/eclipse/workspace/LED/Dave/Generated/DIGITAL_IO\digital_io.h **** * {
 251:C:/Infineon/Tools/DAVE IDE/4.5.0.202105191637/eclipse/workspace/LED/Dave/Generated/DIGITAL_IO\digital_io.h **** *   DAVE_STATUS_t status;
 252:C:/Infineon/Tools/DAVE IDE/4.5.0.202105191637/eclipse/workspace/LED/Dave/Generated/DIGITAL_IO\digital_io.h **** *   status = DAVE_Init();  //(DAVE_STATUS_t)DIGITAL_IO_Init(&DIGITAL_IO_0) is called within DAVE_In
 253:C:/Infineon/Tools/DAVE IDE/4.5.0.202105191637/eclipse/workspace/LED/Dave/Generated/DIGITAL_IO\digital_io.h **** *   if(status == DAVE_STATUS_SUCCESS)
 254:C:/Infineon/Tools/DAVE IDE/4.5.0.202105191637/eclipse/workspace/LED/Dave/Generated/DIGITAL_IO\digital_io.h **** *   {
 255:C:/Infineon/Tools/DAVE IDE/4.5.0.202105191637/eclipse/workspace/LED/Dave/Generated/DIGITAL_IO\digital_io.h **** *     XMC_DEBUG("DAVE Apps initialization success\n");
 256:C:/Infineon/Tools/DAVE IDE/4.5.0.202105191637/eclipse/workspace/LED/Dave/Generated/DIGITAL_IO\digital_io.h **** *   }
 257:C:/Infineon/Tools/DAVE IDE/4.5.0.202105191637/eclipse/workspace/LED/Dave/Generated/DIGITAL_IO\digital_io.h **** *   else
 258:C:/Infineon/Tools/DAVE IDE/4.5.0.202105191637/eclipse/workspace/LED/Dave/Generated/DIGITAL_IO\digital_io.h **** *   {
 259:C:/Infineon/Tools/DAVE IDE/4.5.0.202105191637/eclipse/workspace/LED/Dave/Generated/DIGITAL_IO\digital_io.h **** *     XMC_DEBUG(("DAVE Apps initialization failed with status %d\n", status));
 260:C:/Infineon/Tools/DAVE IDE/4.5.0.202105191637/eclipse/workspace/LED/Dave/Generated/DIGITAL_IO\digital_io.h **** *     while(1U)
 261:C:/Infineon/Tools/DAVE IDE/4.5.0.202105191637/eclipse/workspace/LED/Dave/Generated/DIGITAL_IO\digital_io.h **** *     {
 262:C:/Infineon/Tools/DAVE IDE/4.5.0.202105191637/eclipse/workspace/LED/Dave/Generated/DIGITAL_IO\digital_io.h **** *     }
 263:C:/Infineon/Tools/DAVE IDE/4.5.0.202105191637/eclipse/workspace/LED/Dave/Generated/DIGITAL_IO\digital_io.h **** *   }
 264:C:/Infineon/Tools/DAVE IDE/4.5.0.202105191637/eclipse/workspace/LED/Dave/Generated/DIGITAL_IO\digital_io.h **** *   //Placeholder for user application code. The while loop below can be replaced with user applica
 265:C:/Infineon/Tools/DAVE IDE/4.5.0.202105191637/eclipse/workspace/LED/Dave/Generated/DIGITAL_IO\digital_io.h **** *   DIGITAL_IO_SetOutputHigh(&DIGITAL_IO_0);
 266:C:/Infineon/Tools/DAVE IDE/4.5.0.202105191637/eclipse/workspace/LED/Dave/Generated/DIGITAL_IO\digital_io.h **** *   while(1U)
 267:C:/Infineon/Tools/DAVE IDE/4.5.0.202105191637/eclipse/workspace/LED/Dave/Generated/DIGITAL_IO\digital_io.h **** *   {
 268:C:/Infineon/Tools/DAVE IDE/4.5.0.202105191637/eclipse/workspace/LED/Dave/Generated/DIGITAL_IO\digital_io.h **** *     // Add application code here
 269:C:/Infineon/Tools/DAVE IDE/4.5.0.202105191637/eclipse/workspace/LED/Dave/Generated/DIGITAL_IO\digital_io.h **** *   }
 270:C:/Infineon/Tools/DAVE IDE/4.5.0.202105191637/eclipse/workspace/LED/Dave/Generated/DIGITAL_IO\digital_io.h **** *
 271:C:/Infineon/Tools/DAVE IDE/4.5.0.202105191637/eclipse/workspace/LED/Dave/Generated/DIGITAL_IO\digital_io.h **** *   return (1);
 272:C:/Infineon/Tools/DAVE IDE/4.5.0.202105191637/eclipse/workspace/LED/Dave/Generated/DIGITAL_IO\digital_io.h **** * }
 273:C:/Infineon/Tools/DAVE IDE/4.5.0.202105191637/eclipse/workspace/LED/Dave/Generated/DIGITAL_IO\digital_io.h **** *  @endcode
 274:C:/Infineon/Tools/DAVE IDE/4.5.0.202105191637/eclipse/workspace/LED/Dave/Generated/DIGITAL_IO\digital_io.h **** */
 275:C:/Infineon/Tools/DAVE IDE/4.5.0.202105191637/eclipse/workspace/LED/Dave/Generated/DIGITAL_IO\digital_io.h **** 
 276:C:/Infineon/Tools/DAVE IDE/4.5.0.202105191637/eclipse/workspace/LED/Dave/Generated/DIGITAL_IO\digital_io.h **** __STATIC_INLINE void DIGITAL_IO_SetOutputHigh(const DIGITAL_IO_t *const handler)
 277:C:/Infineon/Tools/DAVE IDE/4.5.0.202105191637/eclipse/workspace/LED/Dave/Generated/DIGITAL_IO\digital_io.h **** {
 278:C:/Infineon/Tools/DAVE IDE/4.5.0.202105191637/eclipse/workspace/LED/Dave/Generated/DIGITAL_IO\digital_io.h ****   XMC_ASSERT("DIGITAL_IO_SetOutputHigh: handler null pointer", handler != NULL);
 279:C:/Infineon/Tools/DAVE IDE/4.5.0.202105191637/eclipse/workspace/LED/Dave/Generated/DIGITAL_IO\digital_io.h ****   XMC_GPIO_SetOutputHigh(handler->gpio_port, handler->gpio_pin);
 280:C:/Infineon/Tools/DAVE IDE/4.5.0.202105191637/eclipse/workspace/LED/Dave/Generated/DIGITAL_IO\digital_io.h **** }
 281:C:/Infineon/Tools/DAVE IDE/4.5.0.202105191637/eclipse/workspace/LED/Dave/Generated/DIGITAL_IO\digital_io.h **** 
 282:C:/Infineon/Tools/DAVE IDE/4.5.0.202105191637/eclipse/workspace/LED/Dave/Generated/DIGITAL_IO\digital_io.h **** /**
 283:C:/Infineon/Tools/DAVE IDE/4.5.0.202105191637/eclipse/workspace/LED/Dave/Generated/DIGITAL_IO\digital_io.h **** * @brief Function to reset port pin.
 284:C:/Infineon/Tools/DAVE IDE/4.5.0.202105191637/eclipse/workspace/LED/Dave/Generated/DIGITAL_IO\digital_io.h **** * @param handler Pointer pointing to APP data structure. Refer @ref DIGITAL_IO_t for details.
 285:C:/Infineon/Tools/DAVE IDE/4.5.0.202105191637/eclipse/workspace/LED/Dave/Generated/DIGITAL_IO\digital_io.h **** * @return None
 286:C:/Infineon/Tools/DAVE IDE/4.5.0.202105191637/eclipse/workspace/LED/Dave/Generated/DIGITAL_IO\digital_io.h **** *
 287:C:/Infineon/Tools/DAVE IDE/4.5.0.202105191637/eclipse/workspace/LED/Dave/Generated/DIGITAL_IO\digital_io.h **** * \par<b>Description:</b><br>
 288:C:/Infineon/Tools/DAVE IDE/4.5.0.202105191637/eclipse/workspace/LED/Dave/Generated/DIGITAL_IO\digital_io.h **** * This function configures port output modification register Pn_OMR, to make port pin to low level.
 289:C:/Infineon/Tools/DAVE IDE/4.5.0.202105191637/eclipse/workspace/LED/Dave/Generated/DIGITAL_IO\digital_io.h **** *
 290:C:/Infineon/Tools/DAVE IDE/4.5.0.202105191637/eclipse/workspace/LED/Dave/Generated/DIGITAL_IO\digital_io.h **** * \par<b>Related APIs:</b><BR>
 291:C:/Infineon/Tools/DAVE IDE/4.5.0.202105191637/eclipse/workspace/LED/Dave/Generated/DIGITAL_IO\digital_io.h **** * DIGITAL_IO_SetOutputHigh()
 292:C:/Infineon/Tools/DAVE IDE/4.5.0.202105191637/eclipse/workspace/LED/Dave/Generated/DIGITAL_IO\digital_io.h **** *
 293:C:/Infineon/Tools/DAVE IDE/4.5.0.202105191637/eclipse/workspace/LED/Dave/Generated/DIGITAL_IO\digital_io.h **** * Example Usage:
 294:C:/Infineon/Tools/DAVE IDE/4.5.0.202105191637/eclipse/workspace/LED/Dave/Generated/DIGITAL_IO\digital_io.h **** * @code
 295:C:/Infineon/Tools/DAVE IDE/4.5.0.202105191637/eclipse/workspace/LED/Dave/Generated/DIGITAL_IO\digital_io.h **** *  #include "DAVE.h" //Declarations from DAVE Code Generation (includes SFR declaration)
 296:C:/Infineon/Tools/DAVE IDE/4.5.0.202105191637/eclipse/workspace/LED/Dave/Generated/DIGITAL_IO\digital_io.h **** *
 297:C:/Infineon/Tools/DAVE IDE/4.5.0.202105191637/eclipse/workspace/LED/Dave/Generated/DIGITAL_IO\digital_io.h **** *  int main(void)
 298:C:/Infineon/Tools/DAVE IDE/4.5.0.202105191637/eclipse/workspace/LED/Dave/Generated/DIGITAL_IO\digital_io.h **** *  {
 299:C:/Infineon/Tools/DAVE IDE/4.5.0.202105191637/eclipse/workspace/LED/Dave/Generated/DIGITAL_IO\digital_io.h **** *    DAVE_STATUS_t status;
 300:C:/Infineon/Tools/DAVE IDE/4.5.0.202105191637/eclipse/workspace/LED/Dave/Generated/DIGITAL_IO\digital_io.h **** *    status = DAVE_Init();  //(DAVE_STATUS_t)DIGITAL_IO_Init(&DIGITAL_IO_0) is called within DAVE_I
 301:C:/Infineon/Tools/DAVE IDE/4.5.0.202105191637/eclipse/workspace/LED/Dave/Generated/DIGITAL_IO\digital_io.h **** *    if(status == DAVE_STATUS_SUCCESS)
 302:C:/Infineon/Tools/DAVE IDE/4.5.0.202105191637/eclipse/workspace/LED/Dave/Generated/DIGITAL_IO\digital_io.h **** *    {
 303:C:/Infineon/Tools/DAVE IDE/4.5.0.202105191637/eclipse/workspace/LED/Dave/Generated/DIGITAL_IO\digital_io.h **** *      XMC_DEBUG("DAVE Apps initialization success\n");
 304:C:/Infineon/Tools/DAVE IDE/4.5.0.202105191637/eclipse/workspace/LED/Dave/Generated/DIGITAL_IO\digital_io.h **** *    }
 305:C:/Infineon/Tools/DAVE IDE/4.5.0.202105191637/eclipse/workspace/LED/Dave/Generated/DIGITAL_IO\digital_io.h **** *    else
 306:C:/Infineon/Tools/DAVE IDE/4.5.0.202105191637/eclipse/workspace/LED/Dave/Generated/DIGITAL_IO\digital_io.h **** *    {
 307:C:/Infineon/Tools/DAVE IDE/4.5.0.202105191637/eclipse/workspace/LED/Dave/Generated/DIGITAL_IO\digital_io.h **** *      XMC_DEBUG(("DAVE Apps initialization failed with status %d\n", status));
 308:C:/Infineon/Tools/DAVE IDE/4.5.0.202105191637/eclipse/workspace/LED/Dave/Generated/DIGITAL_IO\digital_io.h **** *      while(1U)
 309:C:/Infineon/Tools/DAVE IDE/4.5.0.202105191637/eclipse/workspace/LED/Dave/Generated/DIGITAL_IO\digital_io.h **** *      {
 310:C:/Infineon/Tools/DAVE IDE/4.5.0.202105191637/eclipse/workspace/LED/Dave/Generated/DIGITAL_IO\digital_io.h **** *      }
 311:C:/Infineon/Tools/DAVE IDE/4.5.0.202105191637/eclipse/workspace/LED/Dave/Generated/DIGITAL_IO\digital_io.h **** *    }
 312:C:/Infineon/Tools/DAVE IDE/4.5.0.202105191637/eclipse/workspace/LED/Dave/Generated/DIGITAL_IO\digital_io.h **** *    //Placeholder for user application code. The while loop below can be replaced with user applic
 313:C:/Infineon/Tools/DAVE IDE/4.5.0.202105191637/eclipse/workspace/LED/Dave/Generated/DIGITAL_IO\digital_io.h **** *    DIGITAL_IO_SetOutputLow(&DIGITAL_IO_0);
 314:C:/Infineon/Tools/DAVE IDE/4.5.0.202105191637/eclipse/workspace/LED/Dave/Generated/DIGITAL_IO\digital_io.h **** *    while(1U)
 315:C:/Infineon/Tools/DAVE IDE/4.5.0.202105191637/eclipse/workspace/LED/Dave/Generated/DIGITAL_IO\digital_io.h **** *    {
 316:C:/Infineon/Tools/DAVE IDE/4.5.0.202105191637/eclipse/workspace/LED/Dave/Generated/DIGITAL_IO\digital_io.h **** *      // Add application code here
 317:C:/Infineon/Tools/DAVE IDE/4.5.0.202105191637/eclipse/workspace/LED/Dave/Generated/DIGITAL_IO\digital_io.h **** *    }
 318:C:/Infineon/Tools/DAVE IDE/4.5.0.202105191637/eclipse/workspace/LED/Dave/Generated/DIGITAL_IO\digital_io.h **** *
 319:C:/Infineon/Tools/DAVE IDE/4.5.0.202105191637/eclipse/workspace/LED/Dave/Generated/DIGITAL_IO\digital_io.h **** *   return (1);
 320:C:/Infineon/Tools/DAVE IDE/4.5.0.202105191637/eclipse/workspace/LED/Dave/Generated/DIGITAL_IO\digital_io.h **** * }
 321:C:/Infineon/Tools/DAVE IDE/4.5.0.202105191637/eclipse/workspace/LED/Dave/Generated/DIGITAL_IO\digital_io.h **** *  @endcode
 322:C:/Infineon/Tools/DAVE IDE/4.5.0.202105191637/eclipse/workspace/LED/Dave/Generated/DIGITAL_IO\digital_io.h **** */
 323:C:/Infineon/Tools/DAVE IDE/4.5.0.202105191637/eclipse/workspace/LED/Dave/Generated/DIGITAL_IO\digital_io.h **** 
 324:C:/Infineon/Tools/DAVE IDE/4.5.0.202105191637/eclipse/workspace/LED/Dave/Generated/DIGITAL_IO\digital_io.h **** __STATIC_INLINE void DIGITAL_IO_SetOutputLow(const DIGITAL_IO_t *const handler)
 325:C:/Infineon/Tools/DAVE IDE/4.5.0.202105191637/eclipse/workspace/LED/Dave/Generated/DIGITAL_IO\digital_io.h **** {
 326:C:/Infineon/Tools/DAVE IDE/4.5.0.202105191637/eclipse/workspace/LED/Dave/Generated/DIGITAL_IO\digital_io.h ****   XMC_ASSERT("DIGITAL_IO_SetOutputLow: handler null pointer", handler != NULL);
 327:C:/Infineon/Tools/DAVE IDE/4.5.0.202105191637/eclipse/workspace/LED/Dave/Generated/DIGITAL_IO\digital_io.h ****   XMC_GPIO_SetOutputLow(handler->gpio_port,handler->gpio_pin);
 328:C:/Infineon/Tools/DAVE IDE/4.5.0.202105191637/eclipse/workspace/LED/Dave/Generated/DIGITAL_IO\digital_io.h **** }
 329:C:/Infineon/Tools/DAVE IDE/4.5.0.202105191637/eclipse/workspace/LED/Dave/Generated/DIGITAL_IO\digital_io.h **** 
 330:C:/Infineon/Tools/DAVE IDE/4.5.0.202105191637/eclipse/workspace/LED/Dave/Generated/DIGITAL_IO\digital_io.h **** /**
 331:C:/Infineon/Tools/DAVE IDE/4.5.0.202105191637/eclipse/workspace/LED/Dave/Generated/DIGITAL_IO\digital_io.h **** * @brief Function to Toggle port pin.
 332:C:/Infineon/Tools/DAVE IDE/4.5.0.202105191637/eclipse/workspace/LED/Dave/Generated/DIGITAL_IO\digital_io.h **** * @param handler Pointer pointing to APP data structure. Refer @ref DIGITAL_IO_t for details.
 333:C:/Infineon/Tools/DAVE IDE/4.5.0.202105191637/eclipse/workspace/LED/Dave/Generated/DIGITAL_IO\digital_io.h **** * @return None
 334:C:/Infineon/Tools/DAVE IDE/4.5.0.202105191637/eclipse/workspace/LED/Dave/Generated/DIGITAL_IO\digital_io.h **** *
 335:C:/Infineon/Tools/DAVE IDE/4.5.0.202105191637/eclipse/workspace/LED/Dave/Generated/DIGITAL_IO\digital_io.h **** * \par<b>Description:</b><br>
 336:C:/Infineon/Tools/DAVE IDE/4.5.0.202105191637/eclipse/workspace/LED/Dave/Generated/DIGITAL_IO\digital_io.h **** * This function configures port output modification register Pn_OMR, to toggle port pin.
 337:C:/Infineon/Tools/DAVE IDE/4.5.0.202105191637/eclipse/workspace/LED/Dave/Generated/DIGITAL_IO\digital_io.h **** *
 338:C:/Infineon/Tools/DAVE IDE/4.5.0.202105191637/eclipse/workspace/LED/Dave/Generated/DIGITAL_IO\digital_io.h **** * \par<b>Related APIs:</b><BR>
 339:C:/Infineon/Tools/DAVE IDE/4.5.0.202105191637/eclipse/workspace/LED/Dave/Generated/DIGITAL_IO\digital_io.h **** * DIGITAL_IO_SetOutputLow(), DIGITAL_IO_SetOutputHigh()
 340:C:/Infineon/Tools/DAVE IDE/4.5.0.202105191637/eclipse/workspace/LED/Dave/Generated/DIGITAL_IO\digital_io.h **** *
 341:C:/Infineon/Tools/DAVE IDE/4.5.0.202105191637/eclipse/workspace/LED/Dave/Generated/DIGITAL_IO\digital_io.h **** * Example Usage:
 342:C:/Infineon/Tools/DAVE IDE/4.5.0.202105191637/eclipse/workspace/LED/Dave/Generated/DIGITAL_IO\digital_io.h **** *
 343:C:/Infineon/Tools/DAVE IDE/4.5.0.202105191637/eclipse/workspace/LED/Dave/Generated/DIGITAL_IO\digital_io.h **** * @code
 344:C:/Infineon/Tools/DAVE IDE/4.5.0.202105191637/eclipse/workspace/LED/Dave/Generated/DIGITAL_IO\digital_io.h **** * #include "DAVE.h" //Declarations from DAVE Code Generation (includes SFR declaration)
 345:C:/Infineon/Tools/DAVE IDE/4.5.0.202105191637/eclipse/workspace/LED/Dave/Generated/DIGITAL_IO\digital_io.h **** *
 346:C:/Infineon/Tools/DAVE IDE/4.5.0.202105191637/eclipse/workspace/LED/Dave/Generated/DIGITAL_IO\digital_io.h **** * int main(void)
 347:C:/Infineon/Tools/DAVE IDE/4.5.0.202105191637/eclipse/workspace/LED/Dave/Generated/DIGITAL_IO\digital_io.h **** * {
 348:C:/Infineon/Tools/DAVE IDE/4.5.0.202105191637/eclipse/workspace/LED/Dave/Generated/DIGITAL_IO\digital_io.h **** *   DAVE_STATUS_t status;
 349:C:/Infineon/Tools/DAVE IDE/4.5.0.202105191637/eclipse/workspace/LED/Dave/Generated/DIGITAL_IO\digital_io.h **** *   uint32_t delay_count;;
 350:C:/Infineon/Tools/DAVE IDE/4.5.0.202105191637/eclipse/workspace/LED/Dave/Generated/DIGITAL_IO\digital_io.h **** *   status = DAVE_Init();  //(DAVE_STATUS_t)DIGITAL_IO_Init(&DIGITAL_IO_0) is called within DAVE_In
 351:C:/Infineon/Tools/DAVE IDE/4.5.0.202105191637/eclipse/workspace/LED/Dave/Generated/DIGITAL_IO\digital_io.h **** *   if(status == DAVE_STATUS_SUCCESS)
 352:C:/Infineon/Tools/DAVE IDE/4.5.0.202105191637/eclipse/workspace/LED/Dave/Generated/DIGITAL_IO\digital_io.h **** *   {
 353:C:/Infineon/Tools/DAVE IDE/4.5.0.202105191637/eclipse/workspace/LED/Dave/Generated/DIGITAL_IO\digital_io.h **** *     XMC_DEBUG("DAVE Apps initialization success\n");
 354:C:/Infineon/Tools/DAVE IDE/4.5.0.202105191637/eclipse/workspace/LED/Dave/Generated/DIGITAL_IO\digital_io.h **** *   }
 355:C:/Infineon/Tools/DAVE IDE/4.5.0.202105191637/eclipse/workspace/LED/Dave/Generated/DIGITAL_IO\digital_io.h **** *   else
 356:C:/Infineon/Tools/DAVE IDE/4.5.0.202105191637/eclipse/workspace/LED/Dave/Generated/DIGITAL_IO\digital_io.h **** *   {
 357:C:/Infineon/Tools/DAVE IDE/4.5.0.202105191637/eclipse/workspace/LED/Dave/Generated/DIGITAL_IO\digital_io.h **** *      XMC_DEBUG(("DAVE Apps initialization failed with status %d\n", status));
 358:C:/Infineon/Tools/DAVE IDE/4.5.0.202105191637/eclipse/workspace/LED/Dave/Generated/DIGITAL_IO\digital_io.h **** *      while(1U)
 359:C:/Infineon/Tools/DAVE IDE/4.5.0.202105191637/eclipse/workspace/LED/Dave/Generated/DIGITAL_IO\digital_io.h **** *      {
 360:C:/Infineon/Tools/DAVE IDE/4.5.0.202105191637/eclipse/workspace/LED/Dave/Generated/DIGITAL_IO\digital_io.h **** *      }
 361:C:/Infineon/Tools/DAVE IDE/4.5.0.202105191637/eclipse/workspace/LED/Dave/Generated/DIGITAL_IO\digital_io.h **** *   }
 362:C:/Infineon/Tools/DAVE IDE/4.5.0.202105191637/eclipse/workspace/LED/Dave/Generated/DIGITAL_IO\digital_io.h **** *   //Placeholder for user application code. The while loop below can be replaced with user applica
 363:C:/Infineon/Tools/DAVE IDE/4.5.0.202105191637/eclipse/workspace/LED/Dave/Generated/DIGITAL_IO\digital_io.h **** *   while(1U)
 364:C:/Infineon/Tools/DAVE IDE/4.5.0.202105191637/eclipse/workspace/LED/Dave/Generated/DIGITAL_IO\digital_io.h **** *   {
 365:C:/Infineon/Tools/DAVE IDE/4.5.0.202105191637/eclipse/workspace/LED/Dave/Generated/DIGITAL_IO\digital_io.h **** *      DIGITAL_IO_ToggleOutput(&DIGITAL_IO_0); //toggles : 1 -> 0 (if initial output level is logic
 366:C:/Infineon/Tools/DAVE IDE/4.5.0.202105191637/eclipse/workspace/LED/Dave/Generated/DIGITAL_IO\digital_io.h **** *      //Add application code here
 367:C:/Infineon/Tools/DAVE IDE/4.5.0.202105191637/eclipse/workspace/LED/Dave/Generated/DIGITAL_IO\digital_io.h **** *      for(delay_count = 0;delay_count<0xfffff;delay_count++);
 368:C:/Infineon/Tools/DAVE IDE/4.5.0.202105191637/eclipse/workspace/LED/Dave/Generated/DIGITAL_IO\digital_io.h **** *      DIGITAL_IO_ToggleOutput(&DIGITAL_IO_0); //toggles : 0 -> 1
 369:C:/Infineon/Tools/DAVE IDE/4.5.0.202105191637/eclipse/workspace/LED/Dave/Generated/DIGITAL_IO\digital_io.h **** *      //Add application code here
 370:C:/Infineon/Tools/DAVE IDE/4.5.0.202105191637/eclipse/workspace/LED/Dave/Generated/DIGITAL_IO\digital_io.h **** *      for(delay_count = 0;delay_count<0xfffff;delay_count++);
 371:C:/Infineon/Tools/DAVE IDE/4.5.0.202105191637/eclipse/workspace/LED/Dave/Generated/DIGITAL_IO\digital_io.h **** *   }
 372:C:/Infineon/Tools/DAVE IDE/4.5.0.202105191637/eclipse/workspace/LED/Dave/Generated/DIGITAL_IO\digital_io.h **** *   return (1);
 373:C:/Infineon/Tools/DAVE IDE/4.5.0.202105191637/eclipse/workspace/LED/Dave/Generated/DIGITAL_IO\digital_io.h **** * }
 374:C:/Infineon/Tools/DAVE IDE/4.5.0.202105191637/eclipse/workspace/LED/Dave/Generated/DIGITAL_IO\digital_io.h **** *  @endcode
 375:C:/Infineon/Tools/DAVE IDE/4.5.0.202105191637/eclipse/workspace/LED/Dave/Generated/DIGITAL_IO\digital_io.h **** */
 376:C:/Infineon/Tools/DAVE IDE/4.5.0.202105191637/eclipse/workspace/LED/Dave/Generated/DIGITAL_IO\digital_io.h **** 
 377:C:/Infineon/Tools/DAVE IDE/4.5.0.202105191637/eclipse/workspace/LED/Dave/Generated/DIGITAL_IO\digital_io.h **** __STATIC_INLINE void DIGITAL_IO_ToggleOutput(const DIGITAL_IO_t *const handler)
 378:C:/Infineon/Tools/DAVE IDE/4.5.0.202105191637/eclipse/workspace/LED/Dave/Generated/DIGITAL_IO\digital_io.h **** {
 379:C:/Infineon/Tools/DAVE IDE/4.5.0.202105191637/eclipse/workspace/LED/Dave/Generated/DIGITAL_IO\digital_io.h ****   XMC_ASSERT("DIGITAL_IO_ToggleOutput: handler null pointer", handler != NULL);
 380:C:/Infineon/Tools/DAVE IDE/4.5.0.202105191637/eclipse/workspace/LED/Dave/Generated/DIGITAL_IO\digital_io.h ****   XMC_GPIO_ToggleOutput(handler->gpio_port, handler->gpio_pin);
 381:C:/Infineon/Tools/DAVE IDE/4.5.0.202105191637/eclipse/workspace/LED/Dave/Generated/DIGITAL_IO\digital_io.h **** }
 382:C:/Infineon/Tools/DAVE IDE/4.5.0.202105191637/eclipse/workspace/LED/Dave/Generated/DIGITAL_IO\digital_io.h **** 
 383:C:/Infineon/Tools/DAVE IDE/4.5.0.202105191637/eclipse/workspace/LED/Dave/Generated/DIGITAL_IO\digital_io.h **** /**
 384:C:/Infineon/Tools/DAVE IDE/4.5.0.202105191637/eclipse/workspace/LED/Dave/Generated/DIGITAL_IO\digital_io.h **** * @brief Function to read input level of port pin.
 385:C:/Infineon/Tools/DAVE IDE/4.5.0.202105191637/eclipse/workspace/LED/Dave/Generated/DIGITAL_IO\digital_io.h **** * @param handler Pointer pointing to APP data structure. Refer @ref DIGITAL_IO_t for details.
 386:C:/Infineon/Tools/DAVE IDE/4.5.0.202105191637/eclipse/workspace/LED/Dave/Generated/DIGITAL_IO\digital_io.h **** * @return uint32_t input logic level. Range:0-1
 387:C:/Infineon/Tools/DAVE IDE/4.5.0.202105191637/eclipse/workspace/LED/Dave/Generated/DIGITAL_IO\digital_io.h **** *
 388:C:/Infineon/Tools/DAVE IDE/4.5.0.202105191637/eclipse/workspace/LED/Dave/Generated/DIGITAL_IO\digital_io.h **** * \par<b>Description:</b><br>
 389:C:/Infineon/Tools/DAVE IDE/4.5.0.202105191637/eclipse/workspace/LED/Dave/Generated/DIGITAL_IO\digital_io.h **** * This function reads the Pn_IN register and returns the current logical value at the GPIO pin.
 390:C:/Infineon/Tools/DAVE IDE/4.5.0.202105191637/eclipse/workspace/LED/Dave/Generated/DIGITAL_IO\digital_io.h **** *
 391:C:/Infineon/Tools/DAVE IDE/4.5.0.202105191637/eclipse/workspace/LED/Dave/Generated/DIGITAL_IO\digital_io.h **** * \par<b>Related APIs:</b><BR>
 392:C:/Infineon/Tools/DAVE IDE/4.5.0.202105191637/eclipse/workspace/LED/Dave/Generated/DIGITAL_IO\digital_io.h **** *  None
 393:C:/Infineon/Tools/DAVE IDE/4.5.0.202105191637/eclipse/workspace/LED/Dave/Generated/DIGITAL_IO\digital_io.h **** *
 394:C:/Infineon/Tools/DAVE IDE/4.5.0.202105191637/eclipse/workspace/LED/Dave/Generated/DIGITAL_IO\digital_io.h **** * Example Usage:
 395:C:/Infineon/Tools/DAVE IDE/4.5.0.202105191637/eclipse/workspace/LED/Dave/Generated/DIGITAL_IO\digital_io.h **** * @code
 396:C:/Infineon/Tools/DAVE IDE/4.5.0.202105191637/eclipse/workspace/LED/Dave/Generated/DIGITAL_IO\digital_io.h **** * #include "DAVE.h" //Declarations from DAVE Code Generation (includes SFR declaration)
 397:C:/Infineon/Tools/DAVE IDE/4.5.0.202105191637/eclipse/workspace/LED/Dave/Generated/DIGITAL_IO\digital_io.h **** *
 398:C:/Infineon/Tools/DAVE IDE/4.5.0.202105191637/eclipse/workspace/LED/Dave/Generated/DIGITAL_IO\digital_io.h **** * int main(void)
 399:C:/Infineon/Tools/DAVE IDE/4.5.0.202105191637/eclipse/workspace/LED/Dave/Generated/DIGITAL_IO\digital_io.h **** * {
 400:C:/Infineon/Tools/DAVE IDE/4.5.0.202105191637/eclipse/workspace/LED/Dave/Generated/DIGITAL_IO\digital_io.h **** *   DAVE_STATUS_t status;
 401:C:/Infineon/Tools/DAVE IDE/4.5.0.202105191637/eclipse/workspace/LED/Dave/Generated/DIGITAL_IO\digital_io.h **** *   uint32_t pin_status;
 402:C:/Infineon/Tools/DAVE IDE/4.5.0.202105191637/eclipse/workspace/LED/Dave/Generated/DIGITAL_IO\digital_io.h **** *   status = DAVE_Init();   // (DAVE_STATUS_t)DIGITAL_IO_Init(&DIGITAL_IO_0) is called within DAVE_
 403:C:/Infineon/Tools/DAVE IDE/4.5.0.202105191637/eclipse/workspace/LED/Dave/Generated/DIGITAL_IO\digital_io.h **** *   if(status == DAVE_STATUS_SUCCESS)
 404:C:/Infineon/Tools/DAVE IDE/4.5.0.202105191637/eclipse/workspace/LED/Dave/Generated/DIGITAL_IO\digital_io.h **** *   {
 405:C:/Infineon/Tools/DAVE IDE/4.5.0.202105191637/eclipse/workspace/LED/Dave/Generated/DIGITAL_IO\digital_io.h **** *     XMC_DEBUG("DAVE Apps initialization success\n");
 406:C:/Infineon/Tools/DAVE IDE/4.5.0.202105191637/eclipse/workspace/LED/Dave/Generated/DIGITAL_IO\digital_io.h **** *   }
 407:C:/Infineon/Tools/DAVE IDE/4.5.0.202105191637/eclipse/workspace/LED/Dave/Generated/DIGITAL_IO\digital_io.h **** *   else
 408:C:/Infineon/Tools/DAVE IDE/4.5.0.202105191637/eclipse/workspace/LED/Dave/Generated/DIGITAL_IO\digital_io.h **** *   {
 409:C:/Infineon/Tools/DAVE IDE/4.5.0.202105191637/eclipse/workspace/LED/Dave/Generated/DIGITAL_IO\digital_io.h **** *     XMC_DEBUG(("DAVE Apps initialization failed with status %d\n", status));
 410:C:/Infineon/Tools/DAVE IDE/4.5.0.202105191637/eclipse/workspace/LED/Dave/Generated/DIGITAL_IO\digital_io.h **** *     while(1U)
 411:C:/Infineon/Tools/DAVE IDE/4.5.0.202105191637/eclipse/workspace/LED/Dave/Generated/DIGITAL_IO\digital_io.h **** *     {
 412:C:/Infineon/Tools/DAVE IDE/4.5.0.202105191637/eclipse/workspace/LED/Dave/Generated/DIGITAL_IO\digital_io.h **** *     }
 413:C:/Infineon/Tools/DAVE IDE/4.5.0.202105191637/eclipse/workspace/LED/Dave/Generated/DIGITAL_IO\digital_io.h **** *   }
 414:C:/Infineon/Tools/DAVE IDE/4.5.0.202105191637/eclipse/workspace/LED/Dave/Generated/DIGITAL_IO\digital_io.h **** *   //Placeholder for user application code. The while loop below can be replaced with user applica
 415:C:/Infineon/Tools/DAVE IDE/4.5.0.202105191637/eclipse/workspace/LED/Dave/Generated/DIGITAL_IO\digital_io.h **** *   while(1U)
 416:C:/Infineon/Tools/DAVE IDE/4.5.0.202105191637/eclipse/workspace/LED/Dave/Generated/DIGITAL_IO\digital_io.h **** *   {
 417:C:/Infineon/Tools/DAVE IDE/4.5.0.202105191637/eclipse/workspace/LED/Dave/Generated/DIGITAL_IO\digital_io.h **** *     pin_status = DIGITAL_IO_GetInput(&DIGITAL_IO_0);
 418:C:/Infineon/Tools/DAVE IDE/4.5.0.202105191637/eclipse/workspace/LED/Dave/Generated/DIGITAL_IO\digital_io.h **** *     if(pin_status == 1)
 419:C:/Infineon/Tools/DAVE IDE/4.5.0.202105191637/eclipse/workspace/LED/Dave/Generated/DIGITAL_IO\digital_io.h **** *     {
 420:C:/Infineon/Tools/DAVE IDE/4.5.0.202105191637/eclipse/workspace/LED/Dave/Generated/DIGITAL_IO\digital_io.h **** *       // Add application code here
 421:C:/Infineon/Tools/DAVE IDE/4.5.0.202105191637/eclipse/workspace/LED/Dave/Generated/DIGITAL_IO\digital_io.h **** *     }
 422:C:/Infineon/Tools/DAVE IDE/4.5.0.202105191637/eclipse/workspace/LED/Dave/Generated/DIGITAL_IO\digital_io.h **** *     else
 423:C:/Infineon/Tools/DAVE IDE/4.5.0.202105191637/eclipse/workspace/LED/Dave/Generated/DIGITAL_IO\digital_io.h **** *     {
 424:C:/Infineon/Tools/DAVE IDE/4.5.0.202105191637/eclipse/workspace/LED/Dave/Generated/DIGITAL_IO\digital_io.h **** *       // Add application code here
 425:C:/Infineon/Tools/DAVE IDE/4.5.0.202105191637/eclipse/workspace/LED/Dave/Generated/DIGITAL_IO\digital_io.h **** *     }
 426:C:/Infineon/Tools/DAVE IDE/4.5.0.202105191637/eclipse/workspace/LED/Dave/Generated/DIGITAL_IO\digital_io.h **** *   }
 427:C:/Infineon/Tools/DAVE IDE/4.5.0.202105191637/eclipse/workspace/LED/Dave/Generated/DIGITAL_IO\digital_io.h **** *   return (1);
 428:C:/Infineon/Tools/DAVE IDE/4.5.0.202105191637/eclipse/workspace/LED/Dave/Generated/DIGITAL_IO\digital_io.h **** * }
 429:C:/Infineon/Tools/DAVE IDE/4.5.0.202105191637/eclipse/workspace/LED/Dave/Generated/DIGITAL_IO\digital_io.h **** *  @endcode
 430:C:/Infineon/Tools/DAVE IDE/4.5.0.202105191637/eclipse/workspace/LED/Dave/Generated/DIGITAL_IO\digital_io.h **** */
 431:C:/Infineon/Tools/DAVE IDE/4.5.0.202105191637/eclipse/workspace/LED/Dave/Generated/DIGITAL_IO\digital_io.h **** 
 432:C:/Infineon/Tools/DAVE IDE/4.5.0.202105191637/eclipse/workspace/LED/Dave/Generated/DIGITAL_IO\digital_io.h **** __STATIC_INLINE uint32_t DIGITAL_IO_GetInput(const DIGITAL_IO_t *const handler)
 433:C:/Infineon/Tools/DAVE IDE/4.5.0.202105191637/eclipse/workspace/LED/Dave/Generated/DIGITAL_IO\digital_io.h **** {
  76              	 .loc 2 433 0
  77              	 .cfi_startproc
  78              	 
  79              	 
  80 0000 80B5     	 push {r7,lr}
  81              	.LCFI6:
  82              	 .cfi_def_cfa_offset 8
  83              	 .cfi_offset 7,-8
  84              	 .cfi_offset 14,-4
  85 0002 82B0     	 sub sp,sp,#8
  86              	.LCFI7:
  87              	 .cfi_def_cfa_offset 16
  88 0004 00AF     	 add r7,sp,#0
  89              	.LCFI8:
  90              	 .cfi_def_cfa_register 7
  91 0006 7860     	 str r0,[r7,#4]
 434:C:/Infineon/Tools/DAVE IDE/4.5.0.202105191637/eclipse/workspace/LED/Dave/Generated/DIGITAL_IO\digital_io.h ****   XMC_ASSERT("DIGITAL_IO_GetInput: handler null pointer", handler != NULL);
 435:C:/Infineon/Tools/DAVE IDE/4.5.0.202105191637/eclipse/workspace/LED/Dave/Generated/DIGITAL_IO\digital_io.h ****   return XMC_GPIO_GetInput(handler->gpio_port, handler->gpio_pin);
  92              	 .loc 2 435 0
  93 0008 7B68     	 ldr r3,[r7,#4]
  94 000a 1A68     	 ldr r2,[r3]
  95 000c 7B68     	 ldr r3,[r7,#4]
  96 000e 1B7C     	 ldrb r3,[r3,#16]
  97 0010 1046     	 mov r0,r2
  98 0012 1946     	 mov r1,r3
  99 0014 FFF7FEFF 	 bl XMC_GPIO_GetInput
 100 0018 0346     	 mov r3,r0
 436:C:/Infineon/Tools/DAVE IDE/4.5.0.202105191637/eclipse/workspace/LED/Dave/Generated/DIGITAL_IO\digital_io.h **** }
 101              	 .loc 2 436 0
 102 001a 1846     	 mov r0,r3
 103 001c 0837     	 adds r7,r7,#8
 104              	.LCFI9:
 105              	 .cfi_def_cfa_offset 8
 106 001e BD46     	 mov sp,r7
 107              	.LCFI10:
 108              	 .cfi_def_cfa_register 13
 109              	 
 110 0020 80BD     	 pop {r7,pc}
 111              	 .cfi_endproc
 112              	.LFE184:
 114              	 .comm delay1000,4,4
 115              	 .comm appCount1,4,4
 116              	 .comm appCount2,4,4
 117 0022 00BF     	 .section .text.callback,"ax",%progbits
 118              	 .align 2
 119              	 .global callback
 120              	 .thumb
 121              	 .thumb_func
 123              	callback:
 124              	.LFB185:
 125              	 .file 3 "../main.c"
   1:../main.c     **** /*
   2:../main.c     ****  * main.c
   3:../main.c     ****  *
   4:../main.c     ****  *  Created on: 2024 May 27 10:00:46
   5:../main.c     ****  *  Author: Administrator
   6:../main.c     ****  */
   7:../main.c     **** 
   8:../main.c     **** #include "DAVE.h"                 //Declarations from DAVE Code Generation (includes SFR declaratio
   9:../main.c     **** 
  10:../main.c     **** /**
  11:../main.c     **** 
  12:../main.c     ****  * @brief main() - Application entry point
  13:../main.c     ****  *
  14:../main.c     ****  * <b>Details of function</b><br>
  15:../main.c     ****  * This routine is the application entry point. It is invoked by the device startup code. It is res
  16:../main.c     ****  * invoking the APP initialization dispatcher routine - DAVE_Init() and hosting the place-holder fo
  17:../main.c     ****  * code.
  18:../main.c     ****  */
  19:../main.c     **** 
  20:../main.c     **** int delay1000;
  21:../main.c     **** int appCount1;
  22:../main.c     **** int appCount2;
  23:../main.c     **** 
  24:../main.c     **** // 1ms
  25:../main.c     **** void callback() {
 126              	 .loc 3 25 0
 127              	 .cfi_startproc
 128              	 
 129              	 
 130              	 
 131 0000 80B4     	 push {r7}
 132              	.LCFI11:
 133              	 .cfi_def_cfa_offset 4
 134              	 .cfi_offset 7,-4
 135 0002 00AF     	 add r7,sp,#0
 136              	.LCFI12:
 137              	 .cfi_def_cfa_register 7
  26:../main.c     **** 	if(delay1000 > 0)
 138              	 .loc 3 26 0
 139 0004 0F4B     	 ldr r3,.L9
 140 0006 1B68     	 ldr r3,[r3]
 141 0008 002B     	 cmp r3,#0
 142 000a 04DD     	 ble .L6
  27:../main.c     **** 		delay1000--;
 143              	 .loc 3 27 0
 144 000c 0D4B     	 ldr r3,.L9
 145 000e 1B68     	 ldr r3,[r3]
 146 0010 013B     	 subs r3,r3,#1
 147 0012 0C4A     	 ldr r2,.L9
 148 0014 1360     	 str r3,[r2]
 149              	.L6:
  28:../main.c     **** 	if(appCount1 > 0)
 150              	 .loc 3 28 0
 151 0016 0C4B     	 ldr r3,.L9+4
 152 0018 1B68     	 ldr r3,[r3]
 153 001a 002B     	 cmp r3,#0
 154 001c 04DD     	 ble .L7
  29:../main.c     **** 		appCount1--;
 155              	 .loc 3 29 0
 156 001e 0A4B     	 ldr r3,.L9+4
 157 0020 1B68     	 ldr r3,[r3]
 158 0022 013B     	 subs r3,r3,#1
 159 0024 084A     	 ldr r2,.L9+4
 160 0026 1360     	 str r3,[r2]
 161              	.L7:
  30:../main.c     **** 	if(appCount2 > 0)
 162              	 .loc 3 30 0
 163 0028 084B     	 ldr r3,.L9+8
 164 002a 1B68     	 ldr r3,[r3]
 165 002c 002B     	 cmp r3,#0
 166 002e 04DD     	 ble .L5
  31:../main.c     **** 		appCount2--;
 167              	 .loc 3 31 0
 168 0030 064B     	 ldr r3,.L9+8
 169 0032 1B68     	 ldr r3,[r3]
 170 0034 013B     	 subs r3,r3,#1
 171 0036 054A     	 ldr r2,.L9+8
 172 0038 1360     	 str r3,[r2]
 173              	.L5:
  32:../main.c     **** }
 174              	 .loc 3 32 0
 175 003a BD46     	 mov sp,r7
 176              	.LCFI13:
 177              	 .cfi_def_cfa_register 13
 178              	 
 179 003c 5DF8047B 	 ldr r7,[sp],#4
 180              	.LCFI14:
 181              	 .cfi_restore 7
 182              	 .cfi_def_cfa_offset 0
 183 0040 7047     	 bx lr
 184              	.L10:
 185 0042 00BF     	 .align 2
 186              	.L9:
 187 0044 00000000 	 .word delay1000
 188 0048 00000000 	 .word appCount1
 189 004c 00000000 	 .word appCount2
 190              	 .cfi_endproc
 191              	.LFE185:
 193              	 .section .text.delay,"ax",%progbits
 194              	 .align 2
 195              	 .global delay
 196              	 .thumb
 197              	 .thumb_func
 199              	delay:
 200              	.LFB186:
  33:../main.c     **** 
  34:../main.c     **** void delay(int d) {
 201              	 .loc 3 34 0
 202              	 .cfi_startproc
 203              	 
 204              	 
 205              	 
 206 0000 80B4     	 push {r7}
 207              	.LCFI15:
 208              	 .cfi_def_cfa_offset 4
 209              	 .cfi_offset 7,-4
 210 0002 83B0     	 sub sp,sp,#12
 211              	.LCFI16:
 212              	 .cfi_def_cfa_offset 16
 213 0004 00AF     	 add r7,sp,#0
 214              	.LCFI17:
 215              	 .cfi_def_cfa_register 7
 216 0006 7860     	 str r0,[r7,#4]
  35:../main.c     **** 	delay1000 = d;
 217              	 .loc 3 35 0
 218 0008 064A     	 ldr r2,.L13
 219 000a 7B68     	 ldr r3,[r7,#4]
 220 000c 1360     	 str r3,[r2]
  36:../main.c     **** 	while(delay1000 > 0)
 221              	 .loc 3 36 0
 222 000e 00BF     	 nop
 223              	.L12:
 224              	 .loc 3 36 0 is_stmt 0 discriminator 1
 225 0010 044B     	 ldr r3,.L13
 226 0012 1B68     	 ldr r3,[r3]
 227 0014 002B     	 cmp r3,#0
 228 0016 FBDC     	 bgt .L12
  37:../main.c     **** 		;
  38:../main.c     **** }
 229              	 .loc 3 38 0 is_stmt 1
 230 0018 0C37     	 adds r7,r7,#12
 231              	.LCFI18:
 232              	 .cfi_def_cfa_offset 4
 233 001a BD46     	 mov sp,r7
 234              	.LCFI19:
 235              	 .cfi_def_cfa_register 13
 236              	 
 237 001c 5DF8047B 	 ldr r7,[sp],#4
 238              	.LCFI20:
 239              	 .cfi_restore 7
 240              	 .cfi_def_cfa_offset 0
 241 0020 7047     	 bx lr
 242              	.L14:
 243 0022 00BF     	 .align 2
 244              	.L13:
 245 0024 00000000 	 .word delay1000
 246              	 .cfi_endproc
 247              	.LFE186:
 249              	 .section .text.main,"ax",%progbits
 250              	 .align 2
 251              	 .global main
 252              	 .thumb
 253              	 .thumb_func
 255              	main:
 256              	.LFB187:
  39:../main.c     **** 
  40:../main.c     **** int main(void) {
 257              	 .loc 3 40 0
 258              	 .cfi_startproc
 259              	 
 260              	 
 261 0000 80B5     	 push {r7,lr}
 262              	.LCFI21:
 263              	 .cfi_def_cfa_offset 8
 264              	 .cfi_offset 7,-8
 265              	 .cfi_offset 14,-4
 266 0002 8CB0     	 sub sp,sp,#48
 267              	.LCFI22:
 268              	 .cfi_def_cfa_offset 56
 269 0004 00AF     	 add r7,sp,#0
 270              	.LCFI23:
 271              	 .cfi_def_cfa_register 7
  41:../main.c     **** 	DAVE_STATUS_t status;
  42:../main.c     **** 
  43:../main.c     **** 	status = DAVE_Init(); /* Initialization of DAVE APPs  */
 272              	 .loc 3 43 0
 273 0006 FFF7FEFF 	 bl DAVE_Init
 274 000a 0346     	 mov r3,r0
 275 000c 87F82F30 	 strb r3,[r7,#47]
  44:../main.c     **** 
  45:../main.c     **** 	if(status != DAVE_STATUS_SUCCESS) {
 276              	 .loc 3 45 0
 277 0010 97F82F30 	 ldrb r3,[r7,#47]
 278 0014 002B     	 cmp r3,#0
 279 0016 00D0     	 beq .L16
 280              	.L17:
  46:../main.c     **** 		/* Placeholder for error handler code. The while loop below can be replaced with an user error ha
  47:../main.c     **** 		XMC_DEBUG("DAVE APPs initialization failed\n");
  48:../main.c     **** 
  49:../main.c     **** 		while(1U)
  50:../main.c     **** 			;
 281              	 .loc 3 50 0 discriminator 1
 282 0018 FEE7     	 b .L17
 283              	.L16:
  51:../main.c     **** 	}
  52:../main.c     **** 	//    
  53:../main.c     **** 
  54:../main.c     **** 	int id = SYSTIMER_CreateTimer(1000, SYSTIMER_MODE_PERIODIC, callback, NULL);
 284              	 .loc 3 54 0
 285 001a 4FF47A70 	 mov r0,#1000
 286 001e 0121     	 movs r1,#1
 287 0020 394A     	 ldr r2,.L21
 288 0022 0023     	 movs r3,#0
 289 0024 FFF7FEFF 	 bl SYSTIMER_CreateTimer
 290 0028 0346     	 mov r3,r0
 291 002a BB62     	 str r3,[r7,#40]
  55:../main.c     **** 	SYSTIMER_StartTimer(id);
 292              	 .loc 3 55 0
 293 002c BB6A     	 ldr r3,[r7,#40]
 294 002e 1846     	 mov r0,r3
 295 0030 FFF7FEFF 	 bl SYSTIMER_StartTimer
  56:../main.c     **** 
  57:../main.c     **** 	const DIGITAL_IO_t handler = { .gpio_port = XMC_GPIO_PORT5, .gpio_pin = 9U,
 296              	 .loc 3 57 0
 297 0034 07F11403 	 add r3,r7,#20
 298 0038 0022     	 movs r2,#0
 299 003a 1A60     	 str r2,[r3]
 300 003c 0433     	 adds r3,r3,#4
 301 003e 0022     	 movs r2,#0
 302 0040 1A60     	 str r2,[r3]
 303 0042 0433     	 adds r3,r3,#4
 304 0044 0022     	 movs r2,#0
 305 0046 1A60     	 str r2,[r3]
 306 0048 0433     	 adds r3,r3,#4
 307 004a 0022     	 movs r2,#0
 308 004c 1A60     	 str r2,[r3]
 309 004e 0433     	 adds r3,r3,#4
 310 0050 0022     	 movs r2,#0
 311 0052 1A60     	 str r2,[r3]
 312 0054 0433     	 adds r3,r3,#4
 313 0056 2D4B     	 ldr r3,.L21+4
 314 0058 7B61     	 str r3,[r7,#20]
 315 005a 8023     	 movs r3,#128
 316 005c 3B76     	 strb r3,[r7,#24]
 317 005e 4FF48033 	 mov r3,#65536
 318 0062 FB61     	 str r3,[r7,#28]
 319 0064 0923     	 movs r3,#9
 320 0066 87F82430 	 strb r3,[r7,#36]
  58:../main.c     **** 			.gpio_config = { .mode = XMC_GPIO_MODE_OUTPUT_PUSH_PULL, .output_level =
  59:../main.c     **** 					XMC_GPIO_OUTPUT_LEVEL_LOW,
  60:../main.c     **** 
  61:../main.c     **** 			}, .hwctrl = XMC_GPIO_HWCTRL_DISABLED };
  62:../main.c     **** 	XMC_GPIO_Init(handler.gpio_port, handler.gpio_pin, &handler.gpio_config);
 321              	 .loc 3 62 0
 322 006a 7969     	 ldr r1,[r7,#20]
 323 006c 97F82420 	 ldrb r2,[r7,#36]
 324 0070 07F11403 	 add r3,r7,#20
 325 0074 0433     	 adds r3,r3,#4
 326 0076 0846     	 mov r0,r1
 327 0078 1146     	 mov r1,r2
 328 007a 1A46     	 mov r2,r3
 329 007c FFF7FEFF 	 bl XMC_GPIO_Init
  63:../main.c     **** 	const DIGITAL_IO_t handler2 = { .gpio_port = XMC_GPIO_PORT5, .gpio_pin = 8U,
 330              	 .loc 3 63 0
 331 0080 3B46     	 mov r3,r7
 332 0082 0022     	 movs r2,#0
 333 0084 1A60     	 str r2,[r3]
 334 0086 0433     	 adds r3,r3,#4
 335 0088 0022     	 movs r2,#0
 336 008a 1A60     	 str r2,[r3]
 337 008c 0433     	 adds r3,r3,#4
 338 008e 0022     	 movs r2,#0
 339 0090 1A60     	 str r2,[r3]
 340 0092 0433     	 adds r3,r3,#4
 341 0094 0022     	 movs r2,#0
 342 0096 1A60     	 str r2,[r3]
 343 0098 0433     	 adds r3,r3,#4
 344 009a 0022     	 movs r2,#0
 345 009c 1A60     	 str r2,[r3]
 346 009e 0433     	 adds r3,r3,#4
 347 00a0 1A4B     	 ldr r3,.L21+4
 348 00a2 3B60     	 str r3,[r7]
 349 00a4 8023     	 movs r3,#128
 350 00a6 3B71     	 strb r3,[r7,#4]
 351 00a8 4FF48033 	 mov r3,#65536
 352 00ac BB60     	 str r3,[r7,#8]
 353 00ae 0823     	 movs r3,#8
 354 00b0 3B74     	 strb r3,[r7,#16]
  64:../main.c     **** 			.gpio_config = { .mode = XMC_GPIO_MODE_OUTPUT_PUSH_PULL, .output_level =
  65:../main.c     **** 					XMC_GPIO_OUTPUT_LEVEL_LOW,
  66:../main.c     **** 
  67:../main.c     **** 			}, .hwctrl = XMC_GPIO_HWCTRL_DISABLED };
  68:../main.c     **** 	XMC_GPIO_Init(handler2.gpio_port, handler2.gpio_pin, &handler2.gpio_config);
 355              	 .loc 3 68 0
 356 00b2 3968     	 ldr r1,[r7]
 357 00b4 3A7C     	 ldrb r2,[r7,#16]
 358 00b6 3B46     	 mov r3,r7
 359 00b8 0433     	 adds r3,r3,#4
 360 00ba 0846     	 mov r0,r1
 361 00bc 1146     	 mov r1,r2
 362 00be 1A46     	 mov r2,r3
 363 00c0 FFF7FEFF 	 bl XMC_GPIO_Init
 364              	.L20:
  69:../main.c     **** 
  70:../main.c     **** 	/* Placeholder for user application code. The while loop below can be replaced with user applicati
  71:../main.c     **** 	while(1U) {
  72:../main.c     **** 		if(appCount1 == 0) {
 365              	 .loc 3 72 0
 366 00c4 124B     	 ldr r3,.L21+8
 367 00c6 1B68     	 ldr r3,[r3]
 368 00c8 002B     	 cmp r3,#0
 369 00ca 08D1     	 bne .L18
  73:../main.c     **** 			appCount1 = 120;
 370              	 .loc 3 73 0
 371 00cc 104B     	 ldr r3,.L21+8
 372 00ce 7822     	 movs r2,#120
 373 00d0 1A60     	 str r2,[r3]
  74:../main.c     **** 			// 120ms
  75:../main.c     **** 			PORT5->OUT ^= (1 << 8);
 374              	 .loc 3 75 0
 375 00d2 0E4A     	 ldr r2,.L21+4
 376 00d4 0D4B     	 ldr r3,.L21+4
 377 00d6 1B68     	 ldr r3,[r3]
 378 00d8 83F48073 	 eor r3,r3,#256
 379 00dc 1360     	 str r3,[r2]
 380              	.L18:
  76:../main.c     **** 		}
  77:../main.c     **** 		if(appCount2 == 0 && DIGITAL_IO_GetInput(&SW1)) {
 381              	 .loc 3 77 0
 382 00de 0D4B     	 ldr r3,.L21+12
 383 00e0 1B68     	 ldr r3,[r3]
 384 00e2 002B     	 cmp r3,#0
 385 00e4 0ED1     	 bne .L19
 386              	 .loc 3 77 0 is_stmt 0 discriminator 1
 387 00e6 0C48     	 ldr r0,.L21+16
 388 00e8 FFF7FEFF 	 bl DIGITAL_IO_GetInput
 389 00ec 0346     	 mov r3,r0
 390 00ee 002B     	 cmp r3,#0
 391 00f0 08D0     	 beq .L19
  78:../main.c     **** 			appCount2 = 180;
 392              	 .loc 3 78 0 is_stmt 1
 393 00f2 084B     	 ldr r3,.L21+12
 394 00f4 B422     	 movs r2,#180
 395 00f6 1A60     	 str r2,[r3]
  79:../main.c     **** 			// 180ms
  80:../main.c     **** 			PORT5->OUT ^= (1 << 9);
 396              	 .loc 3 80 0
 397 00f8 044A     	 ldr r2,.L21+4
 398 00fa 044B     	 ldr r3,.L21+4
 399 00fc 1B68     	 ldr r3,[r3]
 400 00fe 83F40073 	 eor r3,r3,#512
 401 0102 1360     	 str r3,[r2]
 402              	.L19:
  81:../main.c     **** 		}
  82:../main.c     **** 	}
 403              	 .loc 3 82 0
 404 0104 DEE7     	 b .L20
 405              	.L22:
 406 0106 00BF     	 .align 2
 407              	.L21:
 408 0108 00000000 	 .word callback
 409 010c 00850248 	 .word 1208124672
 410 0110 00000000 	 .word appCount1
 411 0114 00000000 	 .word appCount2
 412 0118 00000000 	 .word SW1
 413              	 .cfi_endproc
 414              	.LFE187:
 416              	 .text
 417              	.Letext0:
 418              	 .file 4 "c:\\infineon\\tools\\dave ide\\4.5.0.202105191637\\eclipse\\arm-gcc-49\\arm-none-eabi\\include\\machine\\_default_types.h"
 419              	 .file 5 "c:\\infineon\\tools\\dave ide\\4.5.0.202105191637\\eclipse\\arm-gcc-49\\arm-none-eabi\\include\\stdint.h"
 420              	 .file 6 "C:/Infineon/Tools/DAVE IDE/4.5.0.202105191637/eclipse/workspace/LED/Libraries/CMSIS/Infineon/XMC4700_series/Include/XMC4700.h"
 421              	 .file 7 "C:/Infineon/Tools/DAVE IDE/4.5.0.202105191637/eclipse/workspace/LED/Libraries/XMCLib/inc/xmc4_gpio.h"
 422              	 .file 8 "C:/Infineon/Tools/DAVE IDE/4.5.0.202105191637/eclipse/workspace/LED/Dave/Generated/SYSTIMER/systimer.h"
 423              	 .file 9 "C:/Infineon/Tools/DAVE IDE/4.5.0.202105191637/eclipse/workspace/LED/Dave/Generated/DAVE.h"
 424              	 .file 10 "C:/Infineon/Tools/DAVE IDE/4.5.0.202105191637/eclipse/workspace/LED/Libraries/CMSIS/Include/cmsis_gcc.h"
 425              	 .file 11 "C:/Infineon/Tools/DAVE IDE/4.5.0.202105191637/eclipse/workspace/LED/Libraries/CMSIS/Include/core_cm4.h"
 426              	 .file 12 "C:/Infineon/Tools/DAVE IDE/4.5.0.202105191637/eclipse/workspace/LED/Libraries/CMSIS/Infineon/XMC4700_series/Include/system_XMC4700.h"
 427              	 .file 13 "C:/Infineon/Tools/DAVE IDE/4.5.0.202105191637/eclipse/workspace/LED/Dave/Generated/DIGITAL_IO/digital_io_extern.h"